
context_switch.riscv:     file format elf64-littleriscv


Disassembly of section .text:

0000000080000000 <_start>:
    80000000:	4081                	c.li	ra,0
    80000002:	4101                	c.li	sp,0
    80000004:	4181                	c.li	gp,0
    80000006:	4201                	c.li	tp,0
    80000008:	4281                	c.li	t0,0
    8000000a:	4301                	c.li	t1,0
    8000000c:	4381                	c.li	t2,0
    8000000e:	4401                	c.li	s0,0
    80000010:	4481                	c.li	s1,0
    80000012:	4501                	c.li	a0,0
    80000014:	4581                	c.li	a1,0
    80000016:	4601                	c.li	a2,0
    80000018:	4681                	c.li	a3,0
    8000001a:	4701                	c.li	a4,0
    8000001c:	4781                	c.li	a5,0
    8000001e:	4801                	c.li	a6,0
    80000020:	4881                	c.li	a7,0
    80000022:	4901                	c.li	s2,0
    80000024:	4981                	c.li	s3,0
    80000026:	4a01                	c.li	s4,0
    80000028:	4a81                	c.li	s5,0
    8000002a:	4b01                	c.li	s6,0
    8000002c:	4b81                	c.li	s7,0
    8000002e:	4c01                	c.li	s8,0
    80000030:	4c81                	c.li	s9,0
    80000032:	4d01                	c.li	s10,0
    80000034:	4d81                	c.li	s11,0
    80000036:	4e01                	c.li	t3,0
    80000038:	4e81                	c.li	t4,0
    8000003a:	4f01                	c.li	t5,0
    8000003c:	4f81                	c.li	t6,0
    8000003e:	62f9                	c.lui	t0,0x1e
    80000040:	3002a073          	csrrs	zero,mstatus,t0
    80000044:	00000297          	auipc	t0,0x0
    80000048:	09028293          	addi	t0,t0,144 # 800000d4 <_start+0xd4>
    8000004c:	30529073          	csrrw	zero,mtvec,t0
    80000050:	00301073          	csrrw	zero,fcsr,zero
    80000054:	f0000053          	fmv.w.x	ft0,zero
    80000058:	f00000d3          	fmv.w.x	ft1,zero
    8000005c:	f0000153          	fmv.w.x	ft2,zero
    80000060:	f00001d3          	fmv.w.x	ft3,zero
    80000064:	f0000253          	fmv.w.x	ft4,zero
    80000068:	f00002d3          	fmv.w.x	ft5,zero
    8000006c:	f0000353          	fmv.w.x	ft6,zero
    80000070:	f00003d3          	fmv.w.x	ft7,zero
    80000074:	f0000453          	fmv.w.x	fs0,zero
    80000078:	f00004d3          	fmv.w.x	fs1,zero
    8000007c:	f0000553          	fmv.w.x	fa0,zero
    80000080:	f00005d3          	fmv.w.x	fa1,zero
    80000084:	f0000653          	fmv.w.x	fa2,zero
    80000088:	f00006d3          	fmv.w.x	fa3,zero
    8000008c:	f0000753          	fmv.w.x	fa4,zero
    80000090:	f00007d3          	fmv.w.x	fa5,zero
    80000094:	f0000853          	fmv.w.x	fa6,zero
    80000098:	f00008d3          	fmv.w.x	fa7,zero
    8000009c:	f0000953          	fmv.w.x	fs2,zero
    800000a0:	f00009d3          	fmv.w.x	fs3,zero
    800000a4:	f0000a53          	fmv.w.x	fs4,zero
    800000a8:	f0000ad3          	fmv.w.x	fs5,zero
    800000ac:	f0000b53          	fmv.w.x	fs6,zero
    800000b0:	f0000bd3          	fmv.w.x	fs7,zero
    800000b4:	f0000c53          	fmv.w.x	fs8,zero
    800000b8:	f0000cd3          	fmv.w.x	fs9,zero
    800000bc:	f0000d53          	fmv.w.x	fs10,zero
    800000c0:	f0000dd3          	fmv.w.x	fs11,zero
    800000c4:	f0000e53          	fmv.w.x	ft8,zero
    800000c8:	f0000ed3          	fmv.w.x	ft9,zero
    800000cc:	f0000f53          	fmv.w.x	ft10,zero
    800000d0:	f0000fd3          	fmv.w.x	ft11,zero
    800000d4:	00003197          	auipc	gp,0x3
    800000d8:	32c18193          	addi	gp,gp,812 # 80003400 <__global_pointer$>
    800000dc:	f1402473          	csrrs	s0,mhartid,zero
    800000e0:	00f00293          	addi	t0,zero,15
    800000e4:	00023217          	auipc	tp,0x23
    800000e8:	f1c20213          	addi	tp,tp,-228 # 80023000 <__heap_end>
    800000ec:	005412b3          	sll	t0,s0,t0
    800000f0:	9216                	c.add	tp,t0
    800000f2:	62a1                	c.lui	t0,0x8
    800000f4:	00028293          	addi	t0,t0,0 # 8000 <__stack_size>
    800000f8:	00520133          	add	sp,tp,t0
    800000fc:	00000297          	auipc	t0,0x0
    80000100:	04428293          	addi	t0,t0,68 # 80000140 <trap_entry>
    80000104:	30529073          	csrrw	zero,mtvec,t0
    80000108:	24e020ef          	jal	ra,80002356 <__init_tls>
    8000010c:	00000293          	addi	t0,zero,0
    80000110:	00540463          	beq	s0,t0,80000118 <_start+0x118>
    80000114:	0fa0006f          	jal	zero,8000020e <_start_secondary>
    80000118:	82018293          	addi	t0,gp,-2016 # 80002c20 <__malloc_free_list>
    8000011c:	97418313          	addi	t1,gp,-1676 # 80002d74 <__bss_end>
    80000120:	0062f763          	bgeu	t0,t1,8000012e <_start+0x12e>
    80000124:	0002b023          	sd	zero,0(t0)
    80000128:	02a1                	c.addi	t0,8
    8000012a:	fe62ede3          	bltu	t0,t1,80000124 <_start+0x124>
    8000012e:	00002517          	auipc	a0,0x2
    80000132:	2ea50513          	addi	a0,a0,746 # 80002418 <__libc_fini_array>
    80000136:	2a2020ef          	jal	ra,800023d8 <atexit>
    8000013a:	316020ef          	jal	ra,80002450 <__libc_init_array>
    8000013e:	a845                	c.j	800001ee <_start_main>

0000000080000140 <trap_entry>:
    80000140:	34011073          	csrrw	zero,mscratch,sp
    80000144:	7111                	c.addi16sp	sp,-256
    80000146:	e406                	c.sdsp	ra,8(sp)
    80000148:	340020f3          	csrrs	ra,mscratch,zero
    8000014c:	e806                	c.sdsp	ra,16(sp)
    8000014e:	ec0e                	c.sdsp	gp,24(sp)
    80000150:	f012                	c.sdsp	tp,32(sp)
    80000152:	f416                	c.sdsp	t0,40(sp)
    80000154:	f81a                	c.sdsp	t1,48(sp)
    80000156:	fc1e                	c.sdsp	t2,56(sp)
    80000158:	e0a2                	c.sdsp	s0,64(sp)
    8000015a:	e4a6                	c.sdsp	s1,72(sp)
    8000015c:	e8aa                	c.sdsp	a0,80(sp)
    8000015e:	ecae                	c.sdsp	a1,88(sp)
    80000160:	f0b2                	c.sdsp	a2,96(sp)
    80000162:	f4b6                	c.sdsp	a3,104(sp)
    80000164:	f8ba                	c.sdsp	a4,112(sp)
    80000166:	fcbe                	c.sdsp	a5,120(sp)
    80000168:	e142                	c.sdsp	a6,128(sp)
    8000016a:	e546                	c.sdsp	a7,136(sp)
    8000016c:	e94a                	c.sdsp	s2,144(sp)
    8000016e:	ed4e                	c.sdsp	s3,152(sp)
    80000170:	f152                	c.sdsp	s4,160(sp)
    80000172:	f556                	c.sdsp	s5,168(sp)
    80000174:	f95a                	c.sdsp	s6,176(sp)
    80000176:	fd5e                	c.sdsp	s7,184(sp)
    80000178:	e1e2                	c.sdsp	s8,192(sp)
    8000017a:	e5e6                	c.sdsp	s9,200(sp)
    8000017c:	e9ea                	c.sdsp	s10,208(sp)
    8000017e:	edee                	c.sdsp	s11,216(sp)
    80000180:	f1f2                	c.sdsp	t3,224(sp)
    80000182:	f5f6                	c.sdsp	t4,232(sp)
    80000184:	f9fa                	c.sdsp	t5,240(sp)
    80000186:	fdfe                	c.sdsp	t6,248(sp)
    80000188:	34102573          	csrrs	a0,mepc,zero
    8000018c:	342025f3          	csrrs	a1,mcause,zero
    80000190:	34302673          	csrrs	a2,mtval,zero
    80000194:	868a                	c.mv	a3,sp
    80000196:	756000ef          	jal	ra,800008ec <handle_trap>
    8000019a:	34151073          	csrrw	zero,mepc,a0
    8000019e:	000022b7          	lui	t0,0x2
    800001a2:	8002829b          	addiw	t0,t0,-2048
    800001a6:	3002a073          	csrrs	zero,mstatus,t0
    800001aa:	60a2                	c.ldsp	ra,8(sp)
    800001ac:	61e2                	c.ldsp	gp,24(sp)
    800001ae:	7202                	c.ldsp	tp,32(sp)
    800001b0:	72a2                	c.ldsp	t0,40(sp)
    800001b2:	7342                	c.ldsp	t1,48(sp)
    800001b4:	73e2                	c.ldsp	t2,56(sp)
    800001b6:	6406                	c.ldsp	s0,64(sp)
    800001b8:	64a6                	c.ldsp	s1,72(sp)
    800001ba:	6546                	c.ldsp	a0,80(sp)
    800001bc:	65e6                	c.ldsp	a1,88(sp)
    800001be:	7606                	c.ldsp	a2,96(sp)
    800001c0:	76a6                	c.ldsp	a3,104(sp)
    800001c2:	7746                	c.ldsp	a4,112(sp)
    800001c4:	77e6                	c.ldsp	a5,120(sp)
    800001c6:	680a                	c.ldsp	a6,128(sp)
    800001c8:	68aa                	c.ldsp	a7,136(sp)
    800001ca:	694a                	c.ldsp	s2,144(sp)
    800001cc:	69ea                	c.ldsp	s3,152(sp)
    800001ce:	7a0a                	c.ldsp	s4,160(sp)
    800001d0:	7aaa                	c.ldsp	s5,168(sp)
    800001d2:	7b4a                	c.ldsp	s6,176(sp)
    800001d4:	7bea                	c.ldsp	s7,184(sp)
    800001d6:	6c0e                	c.ldsp	s8,192(sp)
    800001d8:	6cae                	c.ldsp	s9,200(sp)
    800001da:	6d4e                	c.ldsp	s10,208(sp)
    800001dc:	6dee                	c.ldsp	s11,216(sp)
    800001de:	7e0e                	c.ldsp	t3,224(sp)
    800001e0:	7eae                	c.ldsp	t4,232(sp)
    800001e2:	7f4e                	c.ldsp	t5,240(sp)
    800001e4:	7fee                	c.ldsp	t6,248(sp)
    800001e6:	6142                	c.ldsp	sp,16(sp)
    800001e8:	30200073          	mret
	...

00000000800001ee <_start_main>:
    800001ee:	52fd                	c.li	t0,-1
    800001f0:	0110000f          	fence	w,w
    800001f4:	8451a423          	sw	t0,-1976(gp) # 80002c48 <__boot_sync>
    800001f8:	4505                	c.li	a0,1
    800001fa:	00003597          	auipc	a1,0x3
    800001fe:	8de58593          	addi	a1,a1,-1826 # 80002ad8 <argv>
    80000202:	8101b603          	ld	a2,-2032(gp) # 80002c10 <environ>
    80000206:	02a000ef          	jal	ra,80000230 <main>
    8000020a:	1e20206f          	jal	zero,800023ec <exit>

000000008000020e <_start_secondary>:
    8000020e:	8481a283          	lw	t0,-1976(gp) # 80002c48 <__boot_sync>
    80000212:	fe028ee3          	beq	t0,zero,8000020e <_start_secondary>
    80000216:	0220000f          	fence	r,r
    8000021a:	4505                	c.li	a0,1
    8000021c:	00003597          	auipc	a1,0x3
    80000220:	8bc58593          	addi	a1,a1,-1860 # 80002ad8 <argv>
    80000224:	8101b603          	ld	a2,-2032(gp) # 80002c10 <environ>
    80000228:	15e020ef          	jal	ra,80002386 <__main>
    8000022c:	1c00206f          	jal	zero,800023ec <exit>

0000000080000230 <main>:
    80000230:	7139                	c.addi16sp	sp,-64
    80000232:	1f800593          	addi	a1,zero,504
    80000236:	4505                	c.li	a0,1
    80000238:	fc06                	c.sdsp	ra,56(sp)
    8000023a:	f822                	c.sdsp	s0,48(sp)
    8000023c:	f426                	c.sdsp	s1,40(sp)
    8000023e:	f04a                	c.sdsp	s2,32(sp)
    80000240:	ec4e                	c.sdsp	s3,24(sp)
    80000242:	e852                	c.sdsp	s4,16(sp)
    80000244:	e456                	c.sdsp	s5,8(sp)
    80000246:	6c4000ef          	jal	ra,8000090a <calloc>
    8000024a:	1f800593          	addi	a1,zero,504
    8000024e:	8a2a                	c.mv	s4,a0
    80000250:	4505                	c.li	a0,1
    80000252:	6b8000ef          	jal	ra,8000090a <calloc>
    80000256:	842a                	c.mv	s0,a0
    80000258:	4561                	c.li	a0,24
    8000025a:	6be000ef          	jal	ra,80000918 <malloc>
    8000025e:	89aa                	c.mv	s3,a0
    80000260:	4561                	c.li	a0,24
    80000262:	6b6000ef          	jal	ra,80000918 <malloc>
    80000266:	00000797          	auipc	a5,0x0
    8000026a:	09878793          	addi	a5,a5,152 # 800002fe <func1>
    8000026e:	00f9b423          	sd	a5,8(s3)
    80000272:	00000797          	auipc	a5,0x0
    80000276:	0a078793          	addi	a5,a5,160 # 80000312 <func2>
    8000027a:	e100                	c.sd	s0,0(a0)
    8000027c:	892a                	c.mv	s2,a0
    8000027e:	4481                	c.li	s1,0
    80000280:	0149b023          	sd	s4,0(s3)
    80000284:	e51c                	c.sd	a5,8(a0)
    80000286:	96818413          	addi	s0,gp,-1688 # 80002d68 <current>
    8000028a:	4aa9                	c.li	s5,10
    8000028c:	a019                	c.j	80000292 <main+0x62>
    8000028e:	0009ba03          	ld	s4,0(s3)
    80000292:	8552                	c.mv	a0,s4
    80000294:	01343023          	sd	s3,0(s0)
    80000298:	462000ef          	jal	ra,800006fa <restore_context>
    8000029c:	601c                	c.ld	a5,0(s0)
    8000029e:	2485                	c.addiw	s1,1
    800002a0:	6388                	c.ld	a0,0(a5)
    800002a2:	09c000ef          	jal	ra,8000033e <print_context>
    800002a6:	601c                	c.ld	a5,0(s0)
    800002a8:	679c                	c.ld	a5,8(a5)
    800002aa:	9782                	c.jalr	a5
    800002ac:	601c                	c.ld	a5,0(s0)
    800002ae:	6388                	c.ld	a0,0(a5)
    800002b0:	566000ef          	jal	ra,80000816 <save_context>
    800002b4:	601c                	c.ld	a5,0(s0)
    800002b6:	6388                	c.ld	a0,0(a5)
    800002b8:	086000ef          	jal	ra,8000033e <print_context>
    800002bc:	00093503          	ld	a0,0(s2)
    800002c0:	01243023          	sd	s2,0(s0)
    800002c4:	436000ef          	jal	ra,800006fa <restore_context>
    800002c8:	601c                	c.ld	a5,0(s0)
    800002ca:	6388                	c.ld	a0,0(a5)
    800002cc:	072000ef          	jal	ra,8000033e <print_context>
    800002d0:	601c                	c.ld	a5,0(s0)
    800002d2:	679c                	c.ld	a5,8(a5)
    800002d4:	9782                	c.jalr	a5
    800002d6:	601c                	c.ld	a5,0(s0)
    800002d8:	6388                	c.ld	a0,0(a5)
    800002da:	53c000ef          	jal	ra,80000816 <save_context>
    800002de:	601c                	c.ld	a5,0(s0)
    800002e0:	6388                	c.ld	a0,0(a5)
    800002e2:	05c000ef          	jal	ra,8000033e <print_context>
    800002e6:	fb5494e3          	bne	s1,s5,8000028e <main+0x5e>
    800002ea:	70e2                	c.ldsp	ra,56(sp)
    800002ec:	7442                	c.ldsp	s0,48(sp)
    800002ee:	74a2                	c.ldsp	s1,40(sp)
    800002f0:	7902                	c.ldsp	s2,32(sp)
    800002f2:	69e2                	c.ldsp	s3,24(sp)
    800002f4:	6a42                	c.ldsp	s4,16(sp)
    800002f6:	6aa2                	c.ldsp	s5,8(sp)
    800002f8:	4501                	c.li	a0,0
    800002fa:	6121                	c.addi16sp	sp,64
    800002fc:	8082                	c.jr	ra

00000000800002fe <func1>:
    800002fe:	45a9                	c.li	a1,10
    80000300:	47d1                	c.li	a5,20
    80000302:	95be                	c.add	a1,a5
    80000304:	00002517          	auipc	a0,0x2
    80000308:	2fc50513          	addi	a0,a0,764 # 80002600 <__tbss_end+0x6>
    8000030c:	2581                	c.addiw	a1,0
    8000030e:	0130006f          	jal	zero,80000b20 <iprintf>

0000000080000312 <func2>:
    80000312:	05f5e7b7          	lui	a5,0x5f5e
    80000316:	10078793          	addi	a5,a5,256 # 5f5e100 <__heap_size+0x5f3e100>
    8000031a:	4705                	c.li	a4,1
    8000031c:	00e705b3          	add	a1,a4,a4
    80000320:	37fd                	c.addiw	a5,-1
    80000322:	2581                	c.addiw	a1,0
    80000324:	ffe5                	c.bnez	a5,8000031c <func2+0xa>
    80000326:	00002517          	auipc	a0,0x2
    8000032a:	2fa50513          	addi	a0,a0,762 # 80002620 <__tbss_end+0x26>
    8000032e:	7f20006f          	jal	zero,80000b20 <iprintf>

0000000080000332 <thread_cancel>:
    80000332:	8082                	c.jr	ra

0000000080000334 <thread_testcancel>:
    80000334:	4908                	c.lw	a0,16(a0)
    80000336:	8082                	c.jr	ra

0000000080000338 <read_cycles>:
    80000338:	c0002573          	csrrs	a0,cycle,zero
    8000033c:	8082                	c.jr	ra

000000008000033e <print_context>:
    8000033e:	610c                	c.ld	a1,0(a0)
    80000340:	1141                	c.addi	sp,-16
    80000342:	e022                	c.sdsp	s0,0(sp)
    80000344:	842a                	c.mv	s0,a0
    80000346:	00002517          	auipc	a0,0x2
    8000034a:	2fa50513          	addi	a0,a0,762 # 80002640 <__tbss_end+0x46>
    8000034e:	e406                	c.sdsp	ra,8(sp)
    80000350:	7d0000ef          	jal	ra,80000b20 <iprintf>
    80000354:	640c                	c.ld	a1,8(s0)
    80000356:	00002517          	auipc	a0,0x2
    8000035a:	2f250513          	addi	a0,a0,754 # 80002648 <__tbss_end+0x4e>
    8000035e:	7c2000ef          	jal	ra,80000b20 <iprintf>
    80000362:	680c                	c.ld	a1,16(s0)
    80000364:	00002517          	auipc	a0,0x2
    80000368:	2ec50513          	addi	a0,a0,748 # 80002650 <__tbss_end+0x56>
    8000036c:	7b4000ef          	jal	ra,80000b20 <iprintf>
    80000370:	6c0c                	c.ld	a1,24(s0)
    80000372:	00002517          	auipc	a0,0x2
    80000376:	2e650513          	addi	a0,a0,742 # 80002658 <__tbss_end+0x5e>
    8000037a:	7a6000ef          	jal	ra,80000b20 <iprintf>
    8000037e:	700c                	c.ld	a1,32(s0)
    80000380:	00002517          	auipc	a0,0x2
    80000384:	2e050513          	addi	a0,a0,736 # 80002660 <__tbss_end+0x66>
    80000388:	798000ef          	jal	ra,80000b20 <iprintf>
    8000038c:	740c                	c.ld	a1,40(s0)
    8000038e:	00002517          	auipc	a0,0x2
    80000392:	2da50513          	addi	a0,a0,730 # 80002668 <__tbss_end+0x6e>
    80000396:	78a000ef          	jal	ra,80000b20 <iprintf>
    8000039a:	780c                	c.ld	a1,48(s0)
    8000039c:	00002517          	auipc	a0,0x2
    800003a0:	2d450513          	addi	a0,a0,724 # 80002670 <__tbss_end+0x76>
    800003a4:	77c000ef          	jal	ra,80000b20 <iprintf>
    800003a8:	7c0c                	c.ld	a1,56(s0)
    800003aa:	00002517          	auipc	a0,0x2
    800003ae:	2ce50513          	addi	a0,a0,718 # 80002678 <__tbss_end+0x7e>
    800003b2:	76e000ef          	jal	ra,80000b20 <iprintf>
    800003b6:	602c                	c.ld	a1,64(s0)
    800003b8:	00002517          	auipc	a0,0x2
    800003bc:	2c850513          	addi	a0,a0,712 # 80002680 <__tbss_end+0x86>
    800003c0:	760000ef          	jal	ra,80000b20 <iprintf>
    800003c4:	642c                	c.ld	a1,72(s0)
    800003c6:	00002517          	auipc	a0,0x2
    800003ca:	2c250513          	addi	a0,a0,706 # 80002688 <__tbss_end+0x8e>
    800003ce:	752000ef          	jal	ra,80000b20 <iprintf>
    800003d2:	682c                	c.ld	a1,80(s0)
    800003d4:	00002517          	auipc	a0,0x2
    800003d8:	2bc50513          	addi	a0,a0,700 # 80002690 <__tbss_end+0x96>
    800003dc:	744000ef          	jal	ra,80000b20 <iprintf>
    800003e0:	6c2c                	c.ld	a1,88(s0)
    800003e2:	00002517          	auipc	a0,0x2
    800003e6:	2b650513          	addi	a0,a0,694 # 80002698 <__tbss_end+0x9e>
    800003ea:	736000ef          	jal	ra,80000b20 <iprintf>
    800003ee:	702c                	c.ld	a1,96(s0)
    800003f0:	00002517          	auipc	a0,0x2
    800003f4:	2b050513          	addi	a0,a0,688 # 800026a0 <__tbss_end+0xa6>
    800003f8:	728000ef          	jal	ra,80000b20 <iprintf>
    800003fc:	742c                	c.ld	a1,104(s0)
    800003fe:	00002517          	auipc	a0,0x2
    80000402:	2aa50513          	addi	a0,a0,682 # 800026a8 <__tbss_end+0xae>
    80000406:	71a000ef          	jal	ra,80000b20 <iprintf>
    8000040a:	782c                	c.ld	a1,112(s0)
    8000040c:	00002517          	auipc	a0,0x2
    80000410:	2a450513          	addi	a0,a0,676 # 800026b0 <__tbss_end+0xb6>
    80000414:	70c000ef          	jal	ra,80000b20 <iprintf>
    80000418:	7c2c                	c.ld	a1,120(s0)
    8000041a:	00002517          	auipc	a0,0x2
    8000041e:	29e50513          	addi	a0,a0,670 # 800026b8 <__tbss_end+0xbe>
    80000422:	6fe000ef          	jal	ra,80000b20 <iprintf>
    80000426:	604c                	c.ld	a1,128(s0)
    80000428:	00002517          	auipc	a0,0x2
    8000042c:	29850513          	addi	a0,a0,664 # 800026c0 <__tbss_end+0xc6>
    80000430:	6f0000ef          	jal	ra,80000b20 <iprintf>
    80000434:	644c                	c.ld	a1,136(s0)
    80000436:	00002517          	auipc	a0,0x2
    8000043a:	29250513          	addi	a0,a0,658 # 800026c8 <__tbss_end+0xce>
    8000043e:	6e2000ef          	jal	ra,80000b20 <iprintf>
    80000442:	684c                	c.ld	a1,144(s0)
    80000444:	00002517          	auipc	a0,0x2
    80000448:	28c50513          	addi	a0,a0,652 # 800026d0 <__tbss_end+0xd6>
    8000044c:	6d4000ef          	jal	ra,80000b20 <iprintf>
    80000450:	6c4c                	c.ld	a1,152(s0)
    80000452:	00002517          	auipc	a0,0x2
    80000456:	28650513          	addi	a0,a0,646 # 800026d8 <__tbss_end+0xde>
    8000045a:	6c6000ef          	jal	ra,80000b20 <iprintf>
    8000045e:	704c                	c.ld	a1,160(s0)
    80000460:	00002517          	auipc	a0,0x2
    80000464:	28050513          	addi	a0,a0,640 # 800026e0 <__tbss_end+0xe6>
    80000468:	6b8000ef          	jal	ra,80000b20 <iprintf>
    8000046c:	744c                	c.ld	a1,168(s0)
    8000046e:	00002517          	auipc	a0,0x2
    80000472:	27a50513          	addi	a0,a0,634 # 800026e8 <__tbss_end+0xee>
    80000476:	6aa000ef          	jal	ra,80000b20 <iprintf>
    8000047a:	784c                	c.ld	a1,176(s0)
    8000047c:	00002517          	auipc	a0,0x2
    80000480:	27450513          	addi	a0,a0,628 # 800026f0 <__tbss_end+0xf6>
    80000484:	69c000ef          	jal	ra,80000b20 <iprintf>
    80000488:	7c4c                	c.ld	a1,184(s0)
    8000048a:	00002517          	auipc	a0,0x2
    8000048e:	26e50513          	addi	a0,a0,622 # 800026f8 <__tbss_end+0xfe>
    80000492:	68e000ef          	jal	ra,80000b20 <iprintf>
    80000496:	606c                	c.ld	a1,192(s0)
    80000498:	00002517          	auipc	a0,0x2
    8000049c:	26850513          	addi	a0,a0,616 # 80002700 <__tbss_end+0x106>
    800004a0:	680000ef          	jal	ra,80000b20 <iprintf>
    800004a4:	646c                	c.ld	a1,200(s0)
    800004a6:	00002517          	auipc	a0,0x2
    800004aa:	26250513          	addi	a0,a0,610 # 80002708 <__tbss_end+0x10e>
    800004ae:	672000ef          	jal	ra,80000b20 <iprintf>
    800004b2:	686c                	c.ld	a1,208(s0)
    800004b4:	00002517          	auipc	a0,0x2
    800004b8:	26450513          	addi	a0,a0,612 # 80002718 <__tbss_end+0x11e>
    800004bc:	664000ef          	jal	ra,80000b20 <iprintf>
    800004c0:	6c6c                	c.ld	a1,216(s0)
    800004c2:	00002517          	auipc	a0,0x2
    800004c6:	26650513          	addi	a0,a0,614 # 80002728 <__tbss_end+0x12e>
    800004ca:	656000ef          	jal	ra,80000b20 <iprintf>
    800004ce:	706c                	c.ld	a1,224(s0)
    800004d0:	00002517          	auipc	a0,0x2
    800004d4:	26050513          	addi	a0,a0,608 # 80002730 <__tbss_end+0x136>
    800004d8:	648000ef          	jal	ra,80000b20 <iprintf>
    800004dc:	746c                	c.ld	a1,232(s0)
    800004de:	00002517          	auipc	a0,0x2
    800004e2:	25a50513          	addi	a0,a0,602 # 80002738 <__tbss_end+0x13e>
    800004e6:	63a000ef          	jal	ra,80000b20 <iprintf>
    800004ea:	786c                	c.ld	a1,240(s0)
    800004ec:	00002517          	auipc	a0,0x2
    800004f0:	25450513          	addi	a0,a0,596 # 80002740 <__tbss_end+0x146>
    800004f4:	62c000ef          	jal	ra,80000b20 <iprintf>
    800004f8:	7c6c                	c.ld	a1,248(s0)
    800004fa:	00002517          	auipc	a0,0x2
    800004fe:	24e50513          	addi	a0,a0,590 # 80002748 <__tbss_end+0x14e>
    80000502:	61e000ef          	jal	ra,80000b20 <iprintf>
    80000506:	10043583          	ld	a1,256(s0)
    8000050a:	00002517          	auipc	a0,0x2
    8000050e:	24650513          	addi	a0,a0,582 # 80002750 <__tbss_end+0x156>
    80000512:	60e000ef          	jal	ra,80000b20 <iprintf>
    80000516:	10843583          	ld	a1,264(s0)
    8000051a:	00002517          	auipc	a0,0x2
    8000051e:	23e50513          	addi	a0,a0,574 # 80002758 <__tbss_end+0x15e>
    80000522:	5fe000ef          	jal	ra,80000b20 <iprintf>
    80000526:	11043583          	ld	a1,272(s0)
    8000052a:	00002517          	auipc	a0,0x2
    8000052e:	23650513          	addi	a0,a0,566 # 80002760 <__tbss_end+0x166>
    80000532:	5ee000ef          	jal	ra,80000b20 <iprintf>
    80000536:	11843583          	ld	a1,280(s0)
    8000053a:	00002517          	auipc	a0,0x2
    8000053e:	22e50513          	addi	a0,a0,558 # 80002768 <__tbss_end+0x16e>
    80000542:	5de000ef          	jal	ra,80000b20 <iprintf>
    80000546:	12043583          	ld	a1,288(s0)
    8000054a:	00002517          	auipc	a0,0x2
    8000054e:	22650513          	addi	a0,a0,550 # 80002770 <__tbss_end+0x176>
    80000552:	5ce000ef          	jal	ra,80000b20 <iprintf>
    80000556:	12843583          	ld	a1,296(s0)
    8000055a:	00002517          	auipc	a0,0x2
    8000055e:	21e50513          	addi	a0,a0,542 # 80002778 <__tbss_end+0x17e>
    80000562:	5be000ef          	jal	ra,80000b20 <iprintf>
    80000566:	13043583          	ld	a1,304(s0)
    8000056a:	00002517          	auipc	a0,0x2
    8000056e:	21650513          	addi	a0,a0,534 # 80002780 <__tbss_end+0x186>
    80000572:	5ae000ef          	jal	ra,80000b20 <iprintf>
    80000576:	13843583          	ld	a1,312(s0)
    8000057a:	00002517          	auipc	a0,0x2
    8000057e:	20e50513          	addi	a0,a0,526 # 80002788 <__tbss_end+0x18e>
    80000582:	59e000ef          	jal	ra,80000b20 <iprintf>
    80000586:	14043583          	ld	a1,320(s0)
    8000058a:	00002517          	auipc	a0,0x2
    8000058e:	20e50513          	addi	a0,a0,526 # 80002798 <__tbss_end+0x19e>
    80000592:	58e000ef          	jal	ra,80000b20 <iprintf>
    80000596:	14843583          	ld	a1,328(s0)
    8000059a:	00002517          	auipc	a0,0x2
    8000059e:	20e50513          	addi	a0,a0,526 # 800027a8 <__tbss_end+0x1ae>
    800005a2:	57e000ef          	jal	ra,80000b20 <iprintf>
    800005a6:	15043583          	ld	a1,336(s0)
    800005aa:	00002517          	auipc	a0,0x2
    800005ae:	20e50513          	addi	a0,a0,526 # 800027b8 <__tbss_end+0x1be>
    800005b2:	56e000ef          	jal	ra,80000b20 <iprintf>
    800005b6:	15843583          	ld	a1,344(s0)
    800005ba:	00002517          	auipc	a0,0x2
    800005be:	20e50513          	addi	a0,a0,526 # 800027c8 <__tbss_end+0x1ce>
    800005c2:	55e000ef          	jal	ra,80000b20 <iprintf>
    800005c6:	16043583          	ld	a1,352(s0)
    800005ca:	00002517          	auipc	a0,0x2
    800005ce:	20e50513          	addi	a0,a0,526 # 800027d8 <__tbss_end+0x1de>
    800005d2:	54e000ef          	jal	ra,80000b20 <iprintf>
    800005d6:	16843583          	ld	a1,360(s0)
    800005da:	00002517          	auipc	a0,0x2
    800005de:	20e50513          	addi	a0,a0,526 # 800027e8 <__tbss_end+0x1ee>
    800005e2:	53e000ef          	jal	ra,80000b20 <iprintf>
    800005e6:	17043583          	ld	a1,368(s0)
    800005ea:	00002517          	auipc	a0,0x2
    800005ee:	20e50513          	addi	a0,a0,526 # 800027f8 <__tbss_end+0x1fe>
    800005f2:	52e000ef          	jal	ra,80000b20 <iprintf>
    800005f6:	17843583          	ld	a1,376(s0)
    800005fa:	00002517          	auipc	a0,0x2
    800005fe:	20e50513          	addi	a0,a0,526 # 80002808 <__tbss_end+0x20e>
    80000602:	51e000ef          	jal	ra,80000b20 <iprintf>
    80000606:	18043583          	ld	a1,384(s0)
    8000060a:	00002517          	auipc	a0,0x2
    8000060e:	20e50513          	addi	a0,a0,526 # 80002818 <__tbss_end+0x21e>
    80000612:	50e000ef          	jal	ra,80000b20 <iprintf>
    80000616:	18843583          	ld	a1,392(s0)
    8000061a:	00002517          	auipc	a0,0x2
    8000061e:	20e50513          	addi	a0,a0,526 # 80002828 <__tbss_end+0x22e>
    80000622:	4fe000ef          	jal	ra,80000b20 <iprintf>
    80000626:	19043583          	ld	a1,400(s0)
    8000062a:	00002517          	auipc	a0,0x2
    8000062e:	20e50513          	addi	a0,a0,526 # 80002838 <__tbss_end+0x23e>
    80000632:	4ee000ef          	jal	ra,80000b20 <iprintf>
    80000636:	19843583          	ld	a1,408(s0)
    8000063a:	00002517          	auipc	a0,0x2
    8000063e:	20e50513          	addi	a0,a0,526 # 80002848 <__tbss_end+0x24e>
    80000642:	4de000ef          	jal	ra,80000b20 <iprintf>
    80000646:	1a043583          	ld	a1,416(s0)
    8000064a:	00002517          	auipc	a0,0x2
    8000064e:	20e50513          	addi	a0,a0,526 # 80002858 <__tbss_end+0x25e>
    80000652:	4ce000ef          	jal	ra,80000b20 <iprintf>
    80000656:	1a843583          	ld	a1,424(s0)
    8000065a:	00002517          	auipc	a0,0x2
    8000065e:	20e50513          	addi	a0,a0,526 # 80002868 <__tbss_end+0x26e>
    80000662:	4be000ef          	jal	ra,80000b20 <iprintf>
    80000666:	1b043583          	ld	a1,432(s0)
    8000066a:	00002517          	auipc	a0,0x2
    8000066e:	20e50513          	addi	a0,a0,526 # 80002878 <__tbss_end+0x27e>
    80000672:	4ae000ef          	jal	ra,80000b20 <iprintf>
    80000676:	1b843583          	ld	a1,440(s0)
    8000067a:	00002517          	auipc	a0,0x2
    8000067e:	20e50513          	addi	a0,a0,526 # 80002888 <__tbss_end+0x28e>
    80000682:	49e000ef          	jal	ra,80000b20 <iprintf>
    80000686:	1c043583          	ld	a1,448(s0)
    8000068a:	00002517          	auipc	a0,0x2
    8000068e:	20e50513          	addi	a0,a0,526 # 80002898 <__tbss_end+0x29e>
    80000692:	48e000ef          	jal	ra,80000b20 <iprintf>
    80000696:	1c843583          	ld	a1,456(s0)
    8000069a:	00002517          	auipc	a0,0x2
    8000069e:	20e50513          	addi	a0,a0,526 # 800028a8 <__tbss_end+0x2ae>
    800006a2:	47e000ef          	jal	ra,80000b20 <iprintf>
    800006a6:	1d043583          	ld	a1,464(s0)
    800006aa:	00002517          	auipc	a0,0x2
    800006ae:	20e50513          	addi	a0,a0,526 # 800028b8 <__tbss_end+0x2be>
    800006b2:	46e000ef          	jal	ra,80000b20 <iprintf>
    800006b6:	1d843583          	ld	a1,472(s0)
    800006ba:	00002517          	auipc	a0,0x2
    800006be:	20e50513          	addi	a0,a0,526 # 800028c8 <__tbss_end+0x2ce>
    800006c2:	45e000ef          	jal	ra,80000b20 <iprintf>
    800006c6:	1e043583          	ld	a1,480(s0)
    800006ca:	00002517          	auipc	a0,0x2
    800006ce:	20e50513          	addi	a0,a0,526 # 800028d8 <__tbss_end+0x2de>
    800006d2:	44e000ef          	jal	ra,80000b20 <iprintf>
    800006d6:	1e843583          	ld	a1,488(s0)
    800006da:	00002517          	auipc	a0,0x2
    800006de:	20e50513          	addi	a0,a0,526 # 800028e8 <__tbss_end+0x2ee>
    800006e2:	43e000ef          	jal	ra,80000b20 <iprintf>
    800006e6:	1f043583          	ld	a1,496(s0)
    800006ea:	6402                	c.ldsp	s0,0(sp)
    800006ec:	60a2                	c.ldsp	ra,8(sp)
    800006ee:	00002517          	auipc	a0,0x2
    800006f2:	20a50513          	addi	a0,a0,522 # 800028f8 <__tbss_end+0x2fe>
    800006f6:	0141                	c.addi	sp,16
    800006f8:	a125                	c.j	80000b20 <iprintf>

00000000800006fa <restore_context>:
    800006fa:	7135                	c.addi16sp	sp,-160
    800006fc:	ed06                	c.sdsp	ra,152(sp)
    800006fe:	e922                	c.sdsp	s0,144(sp)
    80000700:	e526                	c.sdsp	s1,136(sp)
    80000702:	e14a                	c.sdsp	s2,128(sp)
    80000704:	fcce                	c.sdsp	s3,120(sp)
    80000706:	f8d2                	c.sdsp	s4,112(sp)
    80000708:	f4d6                	c.sdsp	s5,104(sp)
    8000070a:	f0da                	c.sdsp	s6,96(sp)
    8000070c:	ecde                	c.sdsp	s7,88(sp)
    8000070e:	e8e2                	c.sdsp	s8,80(sp)
    80000710:	a4a2                	c.fsdsp	fs0,72(sp)
    80000712:	a0a6                	c.fsdsp	fs1,64(sp)
    80000714:	bc4a                	c.fsdsp	fs2,56(sp)
    80000716:	b84e                	c.fsdsp	fs3,48(sp)
    80000718:	b452                	c.fsdsp	fs4,40(sp)
    8000071a:	b056                	c.fsdsp	fs5,32(sp)
    8000071c:	ac5a                	c.fsdsp	fs6,24(sp)
    8000071e:	a85e                	c.fsdsp	fs7,16(sp)
    80000720:	a462                	c.fsdsp	fs8,8(sp)
    80000722:	a066                	c.fsdsp	fs9,0(sp)
    80000724:	87aa                	c.mv	a5,a0
    80000726:	c0002873          	csrrs	a6,cycle,zero
    8000072a:	0007a283          	lw	t0,0(a5)
    8000072e:	0087a303          	lw	t1,8(a5)
    80000732:	0107a383          	lw	t2,16(a5)
    80000736:	4f88                	c.lw	a0,24(a5)
    80000738:	538c                	c.lw	a1,32(a5)
    8000073a:	5790                	c.lw	a2,40(a5)
    8000073c:	5b94                	c.lw	a3,48(a5)
    8000073e:	5f98                	c.lw	a4,56(a5)
    80000740:	0407a903          	lw	s2,64(a5)
    80000744:	0887a983          	lw	s3,136(a5)
    80000748:	0487aa03          	lw	s4,72(a5)
    8000074c:	0507aa83          	lw	s5,80(a5)
    80000750:	0587ab03          	lw	s6,88(a5)
    80000754:	0607ab83          	lw	s7,96(a5)
    80000758:	0687ac03          	lw	s8,104(a5)
    8000075c:	0887ae03          	lw	t3,136(a5)
    80000760:	0907ae83          	lw	t4,144(a5)
    80000764:	0987af03          	lw	t5,152(a5)
    80000768:	0a07af83          	lw	t6,160(a5)
    8000076c:	0a87a007          	flw	ft0,168(a5)
    80000770:	0b07a087          	flw	ft1,176(a5)
    80000774:	1087a107          	flw	ft2,264(a5)
    80000778:	1107a187          	flw	ft3,272(a5)
    8000077c:	1187a207          	flw	ft4,280(a5)
    80000780:	1207a287          	flw	ft5,288(a5)
    80000784:	1287a307          	flw	ft6,296(a5)
    80000788:	1307a387          	flw	ft7,304(a5)
    8000078c:	1387a407          	flw	fs0,312(a5)
    80000790:	1387a487          	flw	fs1,312(a5)
    80000794:	1407a507          	flw	fa0,320(a5)
    80000798:	1487a587          	flw	fa1,328(a5)
    8000079c:	1507a607          	flw	fa2,336(a5)
    800007a0:	1587a687          	flw	fa3,344(a5)
    800007a4:	1607a707          	flw	fa4,352(a5)
    800007a8:	1687a787          	flw	fa5,360(a5)
    800007ac:	1707a807          	flw	fa6,368(a5)
    800007b0:	1787a887          	flw	fa7,376(a5)
    800007b4:	1807a907          	flw	fs2,384(a5)
    800007b8:	1887a987          	flw	fs3,392(a5)
    800007bc:	1907aa07          	flw	fs4,400(a5)
    800007c0:	1987aa87          	flw	fs5,408(a5)
    800007c4:	1a07ab07          	flw	fs6,416(a5)
    800007c8:	1a87ab87          	flw	fs7,424(a5)
    800007cc:	1b07ac07          	flw	fs8,432(a5)
    800007d0:	1b87ac87          	flw	fs9,440(a5)
    800007d4:	c00025f3          	csrrs	a1,cycle,zero
    800007d8:	00002517          	auipc	a0,0x2
    800007dc:	13050513          	addi	a0,a0,304 # 80002908 <__tbss_end+0x30e>
    800007e0:	410585b3          	sub	a1,a1,a6
    800007e4:	33c000ef          	jal	ra,80000b20 <iprintf>
    800007e8:	644a                	c.ldsp	s0,144(sp)
    800007ea:	60ea                	c.ldsp	ra,152(sp)
    800007ec:	64aa                	c.ldsp	s1,136(sp)
    800007ee:	690a                	c.ldsp	s2,128(sp)
    800007f0:	79e6                	c.ldsp	s3,120(sp)
    800007f2:	7a46                	c.ldsp	s4,112(sp)
    800007f4:	7aa6                	c.ldsp	s5,104(sp)
    800007f6:	7b06                	c.ldsp	s6,96(sp)
    800007f8:	6be6                	c.ldsp	s7,88(sp)
    800007fa:	6c46                	c.ldsp	s8,80(sp)
    800007fc:	2426                	c.fldsp	fs0,72(sp)
    800007fe:	2486                	c.fldsp	fs1,64(sp)
    80000800:	3962                	c.fldsp	fs2,56(sp)
    80000802:	39c2                	c.fldsp	fs3,48(sp)
    80000804:	3a22                	c.fldsp	fs4,40(sp)
    80000806:	3a82                	c.fldsp	fs5,32(sp)
    80000808:	2b62                	c.fldsp	fs6,24(sp)
    8000080a:	2bc2                	c.fldsp	fs7,16(sp)
    8000080c:	2c22                	c.fldsp	fs8,8(sp)
    8000080e:	2c82                	c.fldsp	fs9,0(sp)
    80000810:	4529                	c.li	a0,10
    80000812:	610d                	c.addi16sp	sp,160
    80000814:	a6bd                	c.j	80000b82 <putchar>

0000000080000816 <save_context>:
    80000816:	1141                	c.addi	sp,-16
    80000818:	e406                	c.sdsp	ra,8(sp)
    8000081a:	c00027f3          	csrrs	a5,cycle,zero
    8000081e:	00552023          	sw	t0,0(a0)
    80000822:	00652423          	sw	t1,8(a0)
    80000826:	00752823          	sw	t2,16(a0)
    8000082a:	cd08                	c.sw	a0,24(a0)
    8000082c:	d10c                	c.sw	a1,32(a0)
    8000082e:	d510                	c.sw	a2,40(a0)
    80000830:	d914                	c.sw	a3,48(a0)
    80000832:	dd18                	c.sw	a4,56(a0)
    80000834:	05252023          	sw	s2,64(a0)
    80000838:	09352423          	sw	s3,136(a0)
    8000083c:	05452423          	sw	s4,72(a0)
    80000840:	05552823          	sw	s5,80(a0)
    80000844:	05652c23          	sw	s6,88(a0)
    80000848:	07752023          	sw	s7,96(a0)
    8000084c:	07852423          	sw	s8,104(a0)
    80000850:	09c52423          	sw	t3,136(a0)
    80000854:	09d52823          	sw	t4,144(a0)
    80000858:	09e52c23          	sw	t5,152(a0)
    8000085c:	0bf52023          	sw	t6,160(a0)
    80000860:	0a052427          	fsw	ft0,168(a0)
    80000864:	0a152827          	fsw	ft1,176(a0)
    80000868:	10252427          	fsw	ft2,264(a0)
    8000086c:	10352827          	fsw	ft3,272(a0)
    80000870:	10452c27          	fsw	ft4,280(a0)
    80000874:	12552027          	fsw	ft5,288(a0)
    80000878:	12652427          	fsw	ft6,296(a0)
    8000087c:	12752827          	fsw	ft7,304(a0)
    80000880:	12852c27          	fsw	fs0,312(a0)
    80000884:	12952c27          	fsw	fs1,312(a0)
    80000888:	14a52027          	fsw	fa0,320(a0)
    8000088c:	14b52427          	fsw	fa1,328(a0)
    80000890:	14c52827          	fsw	fa2,336(a0)
    80000894:	14d52c27          	fsw	fa3,344(a0)
    80000898:	16e52027          	fsw	fa4,352(a0)
    8000089c:	16f52427          	fsw	fa5,360(a0)
    800008a0:	17052827          	fsw	fa6,368(a0)
    800008a4:	17152c27          	fsw	fa7,376(a0)
    800008a8:	19252027          	fsw	fs2,384(a0)
    800008ac:	19352427          	fsw	fs3,392(a0)
    800008b0:	19452827          	fsw	fs4,400(a0)
    800008b4:	19552c27          	fsw	fs5,408(a0)
    800008b8:	1b652027          	fsw	fs6,416(a0)
    800008bc:	1b752427          	fsw	fs7,424(a0)
    800008c0:	1b852827          	fsw	fs8,432(a0)
    800008c4:	1b952c27          	fsw	fs9,440(a0)
    800008c8:	c00025f3          	csrrs	a1,cycle,zero
    800008cc:	00002517          	auipc	a0,0x2
    800008d0:	06450513          	addi	a0,a0,100 # 80002930 <__tbss_end+0x336>
    800008d4:	8d9d                	c.sub	a1,a5
    800008d6:	24a000ef          	jal	ra,80000b20 <iprintf>
    800008da:	60a2                	c.ldsp	ra,8(sp)
    800008dc:	4529                	c.li	a0,10
    800008de:	0141                	c.addi	sp,16
    800008e0:	a44d                	c.j	80000b82 <putchar>

00000000800008e2 <func3>:
    800008e2:	00002517          	auipc	a0,0x2
    800008e6:	06e50513          	addi	a0,a0,110 # 80002950 <__tbss_end+0x356>
    800008ea:	a199                	c.j	80000d30 <puts>

00000000800008ec <handle_trap>:
    800008ec:	1141                	c.addi	sp,-16
    800008ee:	86b2                	c.mv	a3,a2
    800008f0:	862e                	c.mv	a2,a1
    800008f2:	85aa                	c.mv	a1,a0
    800008f4:	00002517          	auipc	a0,0x2
    800008f8:	06c50513          	addi	a0,a0,108 # 80002960 <__tbss_end+0x366>
    800008fc:	e406                	c.sdsp	ra,8(sp)
    800008fe:	222000ef          	jal	ra,80000b20 <iprintf>
    80000902:	0ff00513          	addi	a0,zero,255
    80000906:	1a7010ef          	jal	ra,800022ac <_exit>

000000008000090a <calloc>:
    8000090a:	862e                	c.mv	a2,a1
    8000090c:	85aa                	c.mv	a1,a0
    8000090e:	00002517          	auipc	a0,0x2
    80000912:	2f253503          	ld	a0,754(a0) # 80002c00 <_impure_ptr>
    80000916:	a829                	c.j	80000930 <_calloc_r>

0000000080000918 <malloc>:
    80000918:	85aa                	c.mv	a1,a0
    8000091a:	00002517          	auipc	a0,0x2
    8000091e:	2e653503          	ld	a0,742(a0) # 80002c00 <_impure_ptr>
    80000922:	a8f1                	c.j	800009fe <_malloc_r>

0000000080000924 <free>:
    80000924:	85aa                	c.mv	a1,a0
    80000926:	00002517          	auipc	a0,0x2
    8000092a:	2da53503          	ld	a0,730(a0) # 80002c00 <_impure_ptr>
    8000092e:	a02d                	c.j	80000958 <_free_r>

0000000080000930 <_calloc_r>:
    80000930:	02c58633          	mul	a2,a1,a2
    80000934:	1101                	c.addi	sp,-32
    80000936:	e822                	c.sdsp	s0,16(sp)
    80000938:	ec06                	c.sdsp	ra,24(sp)
    8000093a:	85b2                	c.mv	a1,a2
    8000093c:	e432                	c.sdsp	a2,8(sp)
    8000093e:	0c0000ef          	jal	ra,800009fe <_malloc_r>
    80000942:	842a                	c.mv	s0,a0
    80000944:	c509                	c.beqz	a0,8000094e <_calloc_r+0x1e>
    80000946:	6622                	c.ldsp	a2,8(sp)
    80000948:	4581                	c.li	a1,0
    8000094a:	39b000ef          	jal	ra,800014e4 <memset>
    8000094e:	60e2                	c.ldsp	ra,24(sp)
    80000950:	8522                	c.mv	a0,s0
    80000952:	6442                	c.ldsp	s0,16(sp)
    80000954:	6105                	c.addi16sp	sp,32
    80000956:	8082                	c.jr	ra

0000000080000958 <_free_r>:
    80000958:	c1d5                	c.beqz	a1,800009fc <_free_r+0xa4>
    8000095a:	ff85b783          	ld	a5,-8(a1)
    8000095e:	1101                	c.addi	sp,-32
    80000960:	e822                	c.sdsp	s0,16(sp)
    80000962:	ec06                	c.sdsp	ra,24(sp)
    80000964:	ff858413          	addi	s0,a1,-8
    80000968:	0007d363          	bge	a5,zero,8000096e <_free_r+0x16>
    8000096c:	943e                	c.add	s0,a5
    8000096e:	e42a                	c.sdsp	a0,8(sp)
    80000970:	385000ef          	jal	ra,800014f4 <__malloc_lock>
    80000974:	82018713          	addi	a4,gp,-2016 # 80002c20 <__malloc_free_list>
    80000978:	631c                	c.ld	a5,0(a4)
    8000097a:	6522                	c.ldsp	a0,8(sp)
    8000097c:	863a                	c.mv	a2,a4
    8000097e:	eb89                	c.bnez	a5,80000990 <_free_r+0x38>
    80000980:	00043423          	sd	zero,8(s0)
    80000984:	e300                	c.sd	s0,0(a4)
    80000986:	6442                	c.ldsp	s0,16(sp)
    80000988:	60e2                	c.ldsp	ra,24(sp)
    8000098a:	6105                	c.addi16sp	sp,32
    8000098c:	36b0006f          	jal	zero,800014f6 <__malloc_unlock>
    80000990:	00f47e63          	bgeu	s0,a5,800009ac <_free_r+0x54>
    80000994:	6014                	c.ld	a3,0(s0)
    80000996:	00d40733          	add	a4,s0,a3
    8000099a:	00e79663          	bne	a5,a4,800009a6 <_free_r+0x4e>
    8000099e:	6398                	c.ld	a4,0(a5)
    800009a0:	679c                	c.ld	a5,8(a5)
    800009a2:	9736                	c.add	a4,a3
    800009a4:	e018                	c.sd	a4,0(s0)
    800009a6:	e41c                	c.sd	a5,8(s0)
    800009a8:	e200                	c.sd	s0,0(a2)
    800009aa:	bff1                	c.j	80000986 <_free_r+0x2e>
    800009ac:	873e                	c.mv	a4,a5
    800009ae:	679c                	c.ld	a5,8(a5)
    800009b0:	c399                	c.beqz	a5,800009b6 <_free_r+0x5e>
    800009b2:	fef47de3          	bgeu	s0,a5,800009ac <_free_r+0x54>
    800009b6:	6314                	c.ld	a3,0(a4)
    800009b8:	00d70633          	add	a2,a4,a3
    800009bc:	00861f63          	bne	a2,s0,800009da <_free_r+0x82>
    800009c0:	6010                	c.ld	a2,0(s0)
    800009c2:	96b2                	c.add	a3,a2
    800009c4:	e314                	c.sd	a3,0(a4)
    800009c6:	00d70633          	add	a2,a4,a3
    800009ca:	fac79ee3          	bne	a5,a2,80000986 <_free_r+0x2e>
    800009ce:	6390                	c.ld	a2,0(a5)
    800009d0:	679c                	c.ld	a5,8(a5)
    800009d2:	96b2                	c.add	a3,a2
    800009d4:	e314                	c.sd	a3,0(a4)
    800009d6:	e71c                	c.sd	a5,8(a4)
    800009d8:	b77d                	c.j	80000986 <_free_r+0x2e>
    800009da:	00c47563          	bgeu	s0,a2,800009e4 <_free_r+0x8c>
    800009de:	47b1                	c.li	a5,12
    800009e0:	c11c                	c.sw	a5,0(a0)
    800009e2:	b755                	c.j	80000986 <_free_r+0x2e>
    800009e4:	6010                	c.ld	a2,0(s0)
    800009e6:	00c406b3          	add	a3,s0,a2
    800009ea:	00d79663          	bne	a5,a3,800009f6 <_free_r+0x9e>
    800009ee:	6394                	c.ld	a3,0(a5)
    800009f0:	679c                	c.ld	a5,8(a5)
    800009f2:	96b2                	c.add	a3,a2
    800009f4:	e014                	c.sd	a3,0(s0)
    800009f6:	e41c                	c.sd	a5,8(s0)
    800009f8:	e700                	c.sd	s0,8(a4)
    800009fa:	b771                	c.j	80000986 <_free_r+0x2e>
    800009fc:	8082                	c.jr	ra

00000000800009fe <_malloc_r>:
    800009fe:	00758793          	addi	a5,a1,7
    80000a02:	7179                	c.addi16sp	sp,-48
    80000a04:	9be1                	c.andi	a5,-8
    80000a06:	ec26                	c.sdsp	s1,24(sp)
    80000a08:	e84a                	c.sdsp	s2,16(sp)
    80000a0a:	f406                	c.sdsp	ra,40(sp)
    80000a0c:	f022                	c.sdsp	s0,32(sp)
    80000a0e:	e44e                	c.sdsp	s3,8(sp)
    80000a10:	07a1                	c.addi	a5,8
    80000a12:	4741                	c.li	a4,16
    80000a14:	84aa                	c.mv	s1,a0
    80000a16:	4941                	c.li	s2,16
    80000a18:	00e7e363          	bltu	a5,a4,80000a1e <_malloc_r+0x20>
    80000a1c:	893e                	c.mv	s2,a5
    80000a1e:	80000737          	lui	a4,0x80000
    80000a22:	fff74713          	xori	a4,a4,-1
    80000a26:	00f76463          	bltu	a4,a5,80000a2e <_malloc_r+0x30>
    80000a2a:	00b97c63          	bgeu	s2,a1,80000a42 <_malloc_r+0x44>
    80000a2e:	47b1                	c.li	a5,12
    80000a30:	c09c                	c.sw	a5,0(s1)
    80000a32:	4501                	c.li	a0,0
    80000a34:	70a2                	c.ldsp	ra,40(sp)
    80000a36:	7402                	c.ldsp	s0,32(sp)
    80000a38:	64e2                	c.ldsp	s1,24(sp)
    80000a3a:	6942                	c.ldsp	s2,16(sp)
    80000a3c:	69a2                	c.ldsp	s3,8(sp)
    80000a3e:	6145                	c.addi16sp	sp,48
    80000a40:	8082                	c.jr	ra
    80000a42:	8526                	c.mv	a0,s1
    80000a44:	2b1000ef          	jal	ra,800014f4 <__malloc_lock>
    80000a48:	82018793          	addi	a5,gp,-2016 # 80002c20 <__malloc_free_list>
    80000a4c:	6398                	c.ld	a4,0(a5)
    80000a4e:	86be                	c.mv	a3,a5
    80000a50:	843a                	c.mv	s0,a4
    80000a52:	e41d                	c.bnez	s0,80000a80 <_malloc_r+0x82>
    80000a54:	82818413          	addi	s0,gp,-2008 # 80002c28 <__malloc_sbrk_start>
    80000a58:	601c                	c.ld	a5,0(s0)
    80000a5a:	e791                	c.bnez	a5,80000a66 <_malloc_r+0x68>
    80000a5c:	4581                	c.li	a1,0
    80000a5e:	8526                	c.mv	a0,s1
    80000a60:	2dc000ef          	jal	ra,80000d3c <_sbrk_r>
    80000a64:	e008                	c.sd	a0,0(s0)
    80000a66:	85ca                	c.mv	a1,s2
    80000a68:	8526                	c.mv	a0,s1
    80000a6a:	2d2000ef          	jal	ra,80000d3c <_sbrk_r>
    80000a6e:	59fd                	c.li	s3,-1
    80000a70:	05351e63          	bne	a0,s3,80000acc <_malloc_r+0xce>
    80000a74:	47b1                	c.li	a5,12
    80000a76:	c09c                	c.sw	a5,0(s1)
    80000a78:	8526                	c.mv	a0,s1
    80000a7a:	27d000ef          	jal	ra,800014f6 <__malloc_unlock>
    80000a7e:	bf55                	c.j	80000a32 <_malloc_r+0x34>
    80000a80:	601c                	c.ld	a5,0(s0)
    80000a82:	412787bb          	subw	a5,a5,s2
    80000a86:	0407c063          	blt	a5,zero,80000ac6 <_malloc_r+0xc8>
    80000a8a:	463d                	c.li	a2,15
    80000a8c:	00f65763          	bge	a2,a5,80000a9a <_malloc_r+0x9c>
    80000a90:	e01c                	c.sd	a5,0(s0)
    80000a92:	943e                	c.add	s0,a5
    80000a94:	01243023          	sd	s2,0(s0)
    80000a98:	a029                	c.j	80000aa2 <_malloc_r+0xa4>
    80000a9a:	641c                	c.ld	a5,8(s0)
    80000a9c:	02871363          	bne	a4,s0,80000ac2 <_malloc_r+0xc4>
    80000aa0:	e29c                	c.sd	a5,0(a3)
    80000aa2:	8526                	c.mv	a0,s1
    80000aa4:	253000ef          	jal	ra,800014f6 <__malloc_unlock>
    80000aa8:	00f40513          	addi	a0,s0,15
    80000aac:	00840793          	addi	a5,s0,8
    80000ab0:	9961                	c.andi	a0,-8
    80000ab2:	40f507bb          	subw	a5,a0,a5
    80000ab6:	dfbd                	c.beqz	a5,80000a34 <_malloc_r+0x36>
    80000ab8:	943e                	c.add	s0,a5
    80000aba:	40f007bb          	subw	a5,zero,a5
    80000abe:	e01c                	c.sd	a5,0(s0)
    80000ac0:	bf95                	c.j	80000a34 <_malloc_r+0x36>
    80000ac2:	e71c                	c.sd	a5,8(a4)
    80000ac4:	bff9                	c.j	80000aa2 <_malloc_r+0xa4>
    80000ac6:	8722                	c.mv	a4,s0
    80000ac8:	6400                	c.ld	s0,8(s0)
    80000aca:	b761                	c.j	80000a52 <_malloc_r+0x54>
    80000acc:	00750413          	addi	s0,a0,7
    80000ad0:	9861                	c.andi	s0,-8
    80000ad2:	fc8501e3          	beq	a0,s0,80000a94 <_malloc_r+0x96>
    80000ad6:	40a405b3          	sub	a1,s0,a0
    80000ada:	8526                	c.mv	a0,s1
    80000adc:	260000ef          	jal	ra,80000d3c <_sbrk_r>
    80000ae0:	fb351ae3          	bne	a0,s3,80000a94 <_malloc_r+0x96>
    80000ae4:	bf41                	c.j	80000a74 <_malloc_r+0x76>

0000000080000ae6 <_iprintf_r>:
    80000ae6:	711d                	c.addi16sp	sp,-96
    80000ae8:	f022                	c.sdsp	s0,32(sp)
    80000aea:	ec26                	c.sdsp	s1,24(sp)
    80000aec:	f406                	c.sdsp	ra,40(sp)
    80000aee:	f832                	c.sdsp	a2,48(sp)
    80000af0:	fc36                	c.sdsp	a3,56(sp)
    80000af2:	e0ba                	c.sdsp	a4,64(sp)
    80000af4:	e4be                	c.sdsp	a5,72(sp)
    80000af6:	e8c2                	c.sdsp	a6,80(sp)
    80000af8:	ecc6                	c.sdsp	a7,88(sp)
    80000afa:	842a                	c.mv	s0,a0
    80000afc:	84ae                	c.mv	s1,a1
    80000afe:	c509                	c.beqz	a0,80000b08 <_iprintf_r+0x22>
    80000b00:	591c                	c.lw	a5,48(a0)
    80000b02:	e399                	c.bnez	a5,80000b08 <_iprintf_r+0x22>
    80000b04:	6d2000ef          	jal	ra,800011d6 <__sinit>
    80000b08:	680c                	c.ld	a1,16(s0)
    80000b0a:	1814                	c.addi4spn	a3,sp,48
    80000b0c:	8626                	c.mv	a2,s1
    80000b0e:	8522                	c.mv	a0,s0
    80000b10:	e436                	c.sdsp	a3,8(sp)
    80000b12:	285000ef          	jal	ra,80001596 <_vfiprintf_r>
    80000b16:	70a2                	c.ldsp	ra,40(sp)
    80000b18:	7402                	c.ldsp	s0,32(sp)
    80000b1a:	64e2                	c.ldsp	s1,24(sp)
    80000b1c:	6125                	c.addi16sp	sp,96
    80000b1e:	8082                	c.jr	ra

0000000080000b20 <iprintf>:
    80000b20:	7159                	c.addi16sp	sp,-112
    80000b22:	f022                	c.sdsp	s0,32(sp)
    80000b24:	f406                	c.sdsp	ra,40(sp)
    80000b26:	842a                	c.mv	s0,a0
    80000b28:	fc2e                	c.sdsp	a1,56(sp)
    80000b2a:	e0b2                	c.sdsp	a2,64(sp)
    80000b2c:	e4b6                	c.sdsp	a3,72(sp)
    80000b2e:	e8ba                	c.sdsp	a4,80(sp)
    80000b30:	ecbe                	c.sdsp	a5,88(sp)
    80000b32:	f0c2                	c.sdsp	a6,96(sp)
    80000b34:	f4c6                	c.sdsp	a7,104(sp)
    80000b36:	00002517          	auipc	a0,0x2
    80000b3a:	0ca53503          	ld	a0,202(a0) # 80002c00 <_impure_ptr>
    80000b3e:	c519                	c.beqz	a0,80000b4c <iprintf+0x2c>
    80000b40:	591c                	c.lw	a5,48(a0)
    80000b42:	e789                	c.bnez	a5,80000b4c <iprintf+0x2c>
    80000b44:	e42a                	c.sdsp	a0,8(sp)
    80000b46:	690000ef          	jal	ra,800011d6 <__sinit>
    80000b4a:	6522                	c.ldsp	a0,8(sp)
    80000b4c:	690c                	c.ld	a1,16(a0)
    80000b4e:	1834                	c.addi4spn	a3,sp,56
    80000b50:	8622                	c.mv	a2,s0
    80000b52:	ec36                	c.sdsp	a3,24(sp)
    80000b54:	243000ef          	jal	ra,80001596 <_vfiprintf_r>
    80000b58:	70a2                	c.ldsp	ra,40(sp)
    80000b5a:	7402                	c.ldsp	s0,32(sp)
    80000b5c:	6165                	c.addi16sp	sp,112
    80000b5e:	8082                	c.jr	ra

0000000080000b60 <_putchar_r>:
    80000b60:	1101                	c.addi	sp,-32
    80000b62:	e822                	c.sdsp	s0,16(sp)
    80000b64:	ec06                	c.sdsp	ra,24(sp)
    80000b66:	842a                	c.mv	s0,a0
    80000b68:	c519                	c.beqz	a0,80000b76 <_putchar_r+0x16>
    80000b6a:	591c                	c.lw	a5,48(a0)
    80000b6c:	e789                	c.bnez	a5,80000b76 <_putchar_r+0x16>
    80000b6e:	e42e                	c.sdsp	a1,8(sp)
    80000b70:	666000ef          	jal	ra,800011d6 <__sinit>
    80000b74:	65a2                	c.ldsp	a1,8(sp)
    80000b76:	6810                	c.ld	a2,16(s0)
    80000b78:	8522                	c.mv	a0,s0
    80000b7a:	6442                	c.ldsp	s0,16(sp)
    80000b7c:	60e2                	c.ldsp	ra,24(sp)
    80000b7e:	6105                	c.addi16sp	sp,32
    80000b80:	a03d                	c.j	80000bae <_putc_r>

0000000080000b82 <putchar>:
    80000b82:	85aa                	c.mv	a1,a0
    80000b84:	00002517          	auipc	a0,0x2
    80000b88:	07c53503          	ld	a0,124(a0) # 80002c00 <_impure_ptr>
    80000b8c:	cd19                	c.beqz	a0,80000baa <putchar+0x28>
    80000b8e:	591c                	c.lw	a5,48(a0)
    80000b90:	ef89                	c.bnez	a5,80000baa <putchar+0x28>
    80000b92:	1101                	c.addi	sp,-32
    80000b94:	ec06                	c.sdsp	ra,24(sp)
    80000b96:	e42e                	c.sdsp	a1,8(sp)
    80000b98:	e02a                	c.sdsp	a0,0(sp)
    80000b9a:	63c000ef          	jal	ra,800011d6 <__sinit>
    80000b9e:	6502                	c.ldsp	a0,0(sp)
    80000ba0:	65a2                	c.ldsp	a1,8(sp)
    80000ba2:	60e2                	c.ldsp	ra,24(sp)
    80000ba4:	6910                	c.ld	a2,16(a0)
    80000ba6:	6105                	c.addi16sp	sp,32
    80000ba8:	a019                	c.j	80000bae <_putc_r>
    80000baa:	6910                	c.ld	a2,16(a0)
    80000bac:	bff5                	c.j	80000ba8 <putchar+0x26>

0000000080000bae <_putc_r>:
    80000bae:	1101                	c.addi	sp,-32
    80000bb0:	e822                	c.sdsp	s0,16(sp)
    80000bb2:	ec06                	c.sdsp	ra,24(sp)
    80000bb4:	842a                	c.mv	s0,a0
    80000bb6:	c909                	c.beqz	a0,80000bc8 <_putc_r+0x1a>
    80000bb8:	591c                	c.lw	a5,48(a0)
    80000bba:	e799                	c.bnez	a5,80000bc8 <_putc_r+0x1a>
    80000bbc:	e432                	c.sdsp	a2,8(sp)
    80000bbe:	e02e                	c.sdsp	a1,0(sp)
    80000bc0:	616000ef          	jal	ra,800011d6 <__sinit>
    80000bc4:	6622                	c.ldsp	a2,8(sp)
    80000bc6:	6582                	c.ldsp	a1,0(sp)
    80000bc8:	00002797          	auipc	a5,0x2
    80000bcc:	e0078793          	addi	a5,a5,-512 # 800029c8 <__sf_fake_stdin>
    80000bd0:	04f61063          	bne	a2,a5,80000c10 <_putc_r+0x62>
    80000bd4:	6410                	c.ld	a2,8(s0)
    80000bd6:	465c                	c.lw	a5,12(a2)
    80000bd8:	37fd                	c.addiw	a5,-1
    80000bda:	c65c                	c.sw	a5,12(a2)
    80000bdc:	02079693          	slli	a3,a5,0x20
    80000be0:	0007871b          	addiw	a4,a5,0
    80000be4:	0006da63          	bge	a3,zero,80000bf8 <_putc_r+0x4a>
    80000be8:	561c                	c.lw	a5,40(a2)
    80000bea:	04f74363          	blt	a4,a5,80000c30 <_putc_r+0x82>
    80000bee:	0ff5f793          	andi	a5,a1,255
    80000bf2:	4729                	c.li	a4,10
    80000bf4:	02e78e63          	beq	a5,a4,80000c30 <_putc_r+0x82>
    80000bf8:	621c                	c.ld	a5,0(a2)
    80000bfa:	0ff5f513          	andi	a0,a1,255
    80000bfe:	00178713          	addi	a4,a5,1
    80000c02:	e218                	c.sd	a4,0(a2)
    80000c04:	00b78023          	sb	a1,0(a5)
    80000c08:	60e2                	c.ldsp	ra,24(sp)
    80000c0a:	6442                	c.ldsp	s0,16(sp)
    80000c0c:	6105                	c.addi16sp	sp,32
    80000c0e:	8082                	c.jr	ra
    80000c10:	00002797          	auipc	a5,0x2
    80000c14:	df078793          	addi	a5,a5,-528 # 80002a00 <__sf_fake_stdout>
    80000c18:	00f61463          	bne	a2,a5,80000c20 <_putc_r+0x72>
    80000c1c:	6810                	c.ld	a2,16(s0)
    80000c1e:	bf65                	c.j	80000bd6 <_putc_r+0x28>
    80000c20:	00002797          	auipc	a5,0x2
    80000c24:	d7078793          	addi	a5,a5,-656 # 80002990 <__sf_fake_stderr>
    80000c28:	faf617e3          	bne	a2,a5,80000bd6 <_putc_r+0x28>
    80000c2c:	6c10                	c.ld	a2,24(s0)
    80000c2e:	b765                	c.j	80000bd6 <_putc_r+0x28>
    80000c30:	8522                	c.mv	a0,s0
    80000c32:	6442                	c.ldsp	s0,16(sp)
    80000c34:	60e2                	c.ldsp	ra,24(sp)
    80000c36:	6105                	c.addi16sp	sp,32
    80000c38:	a235                	c.j	80000d64 <__swbuf_r>

0000000080000c3a <putc>:
    80000c3a:	862e                	c.mv	a2,a1
    80000c3c:	85aa                	c.mv	a1,a0
    80000c3e:	00002517          	auipc	a0,0x2
    80000c42:	fc253503          	ld	a0,-62(a0) # 80002c00 <_impure_ptr>
    80000c46:	b7a5                	c.j	80000bae <_putc_r>

0000000080000c48 <_puts_r>:
    80000c48:	7179                	c.addi16sp	sp,-48
    80000c4a:	ec26                	c.sdsp	s1,24(sp)
    80000c4c:	e84a                	c.sdsp	s2,16(sp)
    80000c4e:	f406                	c.sdsp	ra,40(sp)
    80000c50:	f022                	c.sdsp	s0,32(sp)
    80000c52:	e44e                	c.sdsp	s3,8(sp)
    80000c54:	e052                	c.sdsp	s4,0(sp)
    80000c56:	84aa                	c.mv	s1,a0
    80000c58:	892e                	c.mv	s2,a1
    80000c5a:	c509                	c.beqz	a0,80000c64 <_puts_r+0x1c>
    80000c5c:	591c                	c.lw	a5,48(a0)
    80000c5e:	e399                	c.bnez	a5,80000c64 <_puts_r+0x1c>
    80000c60:	576000ef          	jal	ra,800011d6 <__sinit>
    80000c64:	589c                	c.lw	a5,48(s1)
    80000c66:	6880                	c.ld	s0,16(s1)
    80000c68:	e781                	c.bnez	a5,80000c70 <_puts_r+0x28>
    80000c6a:	8526                	c.mv	a0,s1
    80000c6c:	56a000ef          	jal	ra,800011d6 <__sinit>
    80000c70:	00002797          	auipc	a5,0x2
    80000c74:	d5878793          	addi	a5,a5,-680 # 800029c8 <__sf_fake_stdin>
    80000c78:	02f41f63          	bne	s0,a5,80000cb6 <_puts_r+0x6e>
    80000c7c:	6480                	c.ld	s0,8(s1)
    80000c7e:	01045783          	lhu	a5,16(s0)
    80000c82:	8ba1                	c.andi	a5,8
    80000c84:	cba9                	c.beqz	a5,80000cd6 <_puts_r+0x8e>
    80000c86:	6c1c                	c.ld	a5,24(s0)
    80000c88:	c7b9                	c.beqz	a5,80000cd6 <_puts_r+0x8e>
    80000c8a:	59fd                	c.li	s3,-1
    80000c8c:	4a29                	c.li	s4,10
    80000c8e:	4458                	c.lw	a4,12(s0)
    80000c90:	00094583          	lbu	a1,0(s2)
    80000c94:	fff7079b          	addiw	a5,a4,-1
    80000c98:	873e                	c.mv	a4,a5
    80000c9a:	eda1                	c.bnez	a1,80000cf2 <_puts_r+0xaa>
    80000c9c:	c45c                	c.sw	a5,12(s0)
    80000c9e:	0807d163          	bge	a5,zero,80000d20 <_puts_r+0xd8>
    80000ca2:	8622                	c.mv	a2,s0
    80000ca4:	45a9                	c.li	a1,10
    80000ca6:	8526                	c.mv	a0,s1
    80000ca8:	0bc000ef          	jal	ra,80000d64 <__swbuf_r>
    80000cac:	57fd                	c.li	a5,-1
    80000cae:	02f50963          	beq	a0,a5,80000ce0 <_puts_r+0x98>
    80000cb2:	4529                	c.li	a0,10
    80000cb4:	a03d                	c.j	80000ce2 <_puts_r+0x9a>
    80000cb6:	00002797          	auipc	a5,0x2
    80000cba:	d4a78793          	addi	a5,a5,-694 # 80002a00 <__sf_fake_stdout>
    80000cbe:	00f41463          	bne	s0,a5,80000cc6 <_puts_r+0x7e>
    80000cc2:	6880                	c.ld	s0,16(s1)
    80000cc4:	bf6d                	c.j	80000c7e <_puts_r+0x36>
    80000cc6:	00002797          	auipc	a5,0x2
    80000cca:	cca78793          	addi	a5,a5,-822 # 80002990 <__sf_fake_stderr>
    80000cce:	faf418e3          	bne	s0,a5,80000c7e <_puts_r+0x36>
    80000cd2:	6c80                	c.ld	s0,24(s1)
    80000cd4:	b76d                	c.j	80000c7e <_puts_r+0x36>
    80000cd6:	85a2                	c.mv	a1,s0
    80000cd8:	8526                	c.mv	a0,s1
    80000cda:	15e000ef          	jal	ra,80000e38 <__swsetup_r>
    80000cde:	d555                	c.beqz	a0,80000c8a <_puts_r+0x42>
    80000ce0:	557d                	c.li	a0,-1
    80000ce2:	70a2                	c.ldsp	ra,40(sp)
    80000ce4:	7402                	c.ldsp	s0,32(sp)
    80000ce6:	64e2                	c.ldsp	s1,24(sp)
    80000ce8:	6942                	c.ldsp	s2,16(sp)
    80000cea:	69a2                	c.ldsp	s3,8(sp)
    80000cec:	6a02                	c.ldsp	s4,0(sp)
    80000cee:	6145                	c.addi16sp	sp,48
    80000cf0:	8082                	c.jr	ra
    80000cf2:	c458                	c.sw	a4,12(s0)
    80000cf4:	0905                	c.addi	s2,1
    80000cf6:	0007d763          	bge	a5,zero,80000d04 <_puts_r+0xbc>
    80000cfa:	5418                	c.lw	a4,40(s0)
    80000cfc:	00e7cb63          	blt	a5,a4,80000d12 <_puts_r+0xca>
    80000d00:	01458963          	beq	a1,s4,80000d12 <_puts_r+0xca>
    80000d04:	601c                	c.ld	a5,0(s0)
    80000d06:	00178713          	addi	a4,a5,1
    80000d0a:	e018                	c.sd	a4,0(s0)
    80000d0c:	00b78023          	sb	a1,0(a5)
    80000d10:	bfbd                	c.j	80000c8e <_puts_r+0x46>
    80000d12:	8622                	c.mv	a2,s0
    80000d14:	8526                	c.mv	a0,s1
    80000d16:	04e000ef          	jal	ra,80000d64 <__swbuf_r>
    80000d1a:	f7351ae3          	bne	a0,s3,80000c8e <_puts_r+0x46>
    80000d1e:	b7c9                	c.j	80000ce0 <_puts_r+0x98>
    80000d20:	601c                	c.ld	a5,0(s0)
    80000d22:	00178713          	addi	a4,a5,1
    80000d26:	e018                	c.sd	a4,0(s0)
    80000d28:	4729                	c.li	a4,10
    80000d2a:	00e78023          	sb	a4,0(a5)
    80000d2e:	b751                	c.j	80000cb2 <_puts_r+0x6a>

0000000080000d30 <puts>:
    80000d30:	85aa                	c.mv	a1,a0
    80000d32:	00002517          	auipc	a0,0x2
    80000d36:	ece53503          	ld	a0,-306(a0) # 80002c00 <_impure_ptr>
    80000d3a:	b739                	c.j	80000c48 <_puts_r>

0000000080000d3c <_sbrk_r>:
    80000d3c:	1141                	c.addi	sp,-16
    80000d3e:	e022                	c.sdsp	s0,0(sp)
    80000d40:	842a                	c.mv	s0,a0
    80000d42:	852e                	c.mv	a0,a1
    80000d44:	9601a823          	sw	zero,-1680(gp) # 80002d70 <errno>
    80000d48:	e406                	c.sdsp	ra,8(sp)
    80000d4a:	5ca010ef          	jal	ra,80002314 <_sbrk>
    80000d4e:	57fd                	c.li	a5,-1
    80000d50:	00f51663          	bne	a0,a5,80000d5c <_sbrk_r+0x20>
    80000d54:	9701a783          	lw	a5,-1680(gp) # 80002d70 <errno>
    80000d58:	c391                	c.beqz	a5,80000d5c <_sbrk_r+0x20>
    80000d5a:	c01c                	c.sw	a5,0(s0)
    80000d5c:	60a2                	c.ldsp	ra,8(sp)
    80000d5e:	6402                	c.ldsp	s0,0(sp)
    80000d60:	0141                	c.addi	sp,16
    80000d62:	8082                	c.jr	ra

0000000080000d64 <__swbuf_r>:
    80000d64:	7179                	c.addi16sp	sp,-48
    80000d66:	f022                	c.sdsp	s0,32(sp)
    80000d68:	ec26                	c.sdsp	s1,24(sp)
    80000d6a:	e84a                	c.sdsp	s2,16(sp)
    80000d6c:	f406                	c.sdsp	ra,40(sp)
    80000d6e:	e44e                	c.sdsp	s3,8(sp)
    80000d70:	84aa                	c.mv	s1,a0
    80000d72:	892e                	c.mv	s2,a1
    80000d74:	8432                	c.mv	s0,a2
    80000d76:	c509                	c.beqz	a0,80000d80 <__swbuf_r+0x1c>
    80000d78:	591c                	c.lw	a5,48(a0)
    80000d7a:	e399                	c.bnez	a5,80000d80 <__swbuf_r+0x1c>
    80000d7c:	45a000ef          	jal	ra,800011d6 <__sinit>
    80000d80:	00002797          	auipc	a5,0x2
    80000d84:	c4878793          	addi	a5,a5,-952 # 800029c8 <__sf_fake_stdin>
    80000d88:	06f41a63          	bne	s0,a5,80000dfc <__swbuf_r+0x98>
    80000d8c:	6480                	c.ld	s0,8(s1)
    80000d8e:	541c                	c.lw	a5,40(s0)
    80000d90:	c45c                	c.sw	a5,12(s0)
    80000d92:	01045783          	lhu	a5,16(s0)
    80000d96:	8ba1                	c.andi	a5,8
    80000d98:	c3d1                	c.beqz	a5,80000e1c <__swbuf_r+0xb8>
    80000d9a:	6c1c                	c.ld	a5,24(s0)
    80000d9c:	c3c1                	c.beqz	a5,80000e1c <__swbuf_r+0xb8>
    80000d9e:	6c1c                	c.ld	a5,24(s0)
    80000da0:	6008                	c.ld	a0,0(s0)
    80000da2:	0ff97993          	andi	s3,s2,255
    80000da6:	894e                	c.mv	s2,s3
    80000da8:	9d1d                	c.subw	a0,a5
    80000daa:	501c                	c.lw	a5,32(s0)
    80000dac:	00f54763          	blt	a0,a5,80000dba <__swbuf_r+0x56>
    80000db0:	85a2                	c.mv	a1,s0
    80000db2:	8526                	c.mv	a0,s1
    80000db4:	2d2000ef          	jal	ra,80001086 <_fflush_r>
    80000db8:	e53d                	c.bnez	a0,80000e26 <__swbuf_r+0xc2>
    80000dba:	445c                	c.lw	a5,12(s0)
    80000dbc:	2505                	c.addiw	a0,1
    80000dbe:	37fd                	c.addiw	a5,-1
    80000dc0:	c45c                	c.sw	a5,12(s0)
    80000dc2:	601c                	c.ld	a5,0(s0)
    80000dc4:	00178713          	addi	a4,a5,1
    80000dc8:	e018                	c.sd	a4,0(s0)
    80000dca:	01378023          	sb	s3,0(a5)
    80000dce:	501c                	c.lw	a5,32(s0)
    80000dd0:	00a78963          	beq	a5,a0,80000de2 <__swbuf_r+0x7e>
    80000dd4:	01045783          	lhu	a5,16(s0)
    80000dd8:	8b85                	c.andi	a5,1
    80000dda:	cb89                	c.beqz	a5,80000dec <__swbuf_r+0x88>
    80000ddc:	47a9                	c.li	a5,10
    80000dde:	00f91763          	bne	s2,a5,80000dec <__swbuf_r+0x88>
    80000de2:	85a2                	c.mv	a1,s0
    80000de4:	8526                	c.mv	a0,s1
    80000de6:	2a0000ef          	jal	ra,80001086 <_fflush_r>
    80000dea:	ed15                	c.bnez	a0,80000e26 <__swbuf_r+0xc2>
    80000dec:	70a2                	c.ldsp	ra,40(sp)
    80000dee:	7402                	c.ldsp	s0,32(sp)
    80000df0:	64e2                	c.ldsp	s1,24(sp)
    80000df2:	69a2                	c.ldsp	s3,8(sp)
    80000df4:	854a                	c.mv	a0,s2
    80000df6:	6942                	c.ldsp	s2,16(sp)
    80000df8:	6145                	c.addi16sp	sp,48
    80000dfa:	8082                	c.jr	ra
    80000dfc:	00002797          	auipc	a5,0x2
    80000e00:	c0478793          	addi	a5,a5,-1020 # 80002a00 <__sf_fake_stdout>
    80000e04:	00f41463          	bne	s0,a5,80000e0c <__swbuf_r+0xa8>
    80000e08:	6880                	c.ld	s0,16(s1)
    80000e0a:	b751                	c.j	80000d8e <__swbuf_r+0x2a>
    80000e0c:	00002797          	auipc	a5,0x2
    80000e10:	b8478793          	addi	a5,a5,-1148 # 80002990 <__sf_fake_stderr>
    80000e14:	f6f41de3          	bne	s0,a5,80000d8e <__swbuf_r+0x2a>
    80000e18:	6c80                	c.ld	s0,24(s1)
    80000e1a:	bf95                	c.j	80000d8e <__swbuf_r+0x2a>
    80000e1c:	85a2                	c.mv	a1,s0
    80000e1e:	8526                	c.mv	a0,s1
    80000e20:	018000ef          	jal	ra,80000e38 <__swsetup_r>
    80000e24:	dd2d                	c.beqz	a0,80000d9e <__swbuf_r+0x3a>
    80000e26:	597d                	c.li	s2,-1
    80000e28:	b7d1                	c.j	80000dec <__swbuf_r+0x88>

0000000080000e2a <__swbuf>:
    80000e2a:	862e                	c.mv	a2,a1
    80000e2c:	85aa                	c.mv	a1,a0
    80000e2e:	00002517          	auipc	a0,0x2
    80000e32:	dd253503          	ld	a0,-558(a0) # 80002c00 <_impure_ptr>
    80000e36:	b73d                	c.j	80000d64 <__swbuf_r>

0000000080000e38 <__swsetup_r>:
    80000e38:	1101                	c.addi	sp,-32
    80000e3a:	e822                	c.sdsp	s0,16(sp)
    80000e3c:	e426                	c.sdsp	s1,8(sp)
    80000e3e:	e04a                	c.sdsp	s2,0(sp)
    80000e40:	ec06                	c.sdsp	ra,24(sp)
    80000e42:	00002497          	auipc	s1,0x2
    80000e46:	dbe4b483          	ld	s1,-578(s1) # 80002c00 <_impure_ptr>
    80000e4a:	892a                	c.mv	s2,a0
    80000e4c:	842e                	c.mv	s0,a1
    80000e4e:	c491                	c.beqz	s1,80000e5a <__swsetup_r+0x22>
    80000e50:	589c                	c.lw	a5,48(s1)
    80000e52:	e781                	c.bnez	a5,80000e5a <__swsetup_r+0x22>
    80000e54:	8526                	c.mv	a0,s1
    80000e56:	380000ef          	jal	ra,800011d6 <__sinit>
    80000e5a:	00002797          	auipc	a5,0x2
    80000e5e:	b6e78793          	addi	a5,a5,-1170 # 800029c8 <__sf_fake_stdin>
    80000e62:	02f41763          	bne	s0,a5,80000e90 <__swsetup_r+0x58>
    80000e66:	6480                	c.ld	s0,8(s1)
    80000e68:	01041783          	lh	a5,16(s0)
    80000e6c:	03079713          	slli	a4,a5,0x30
    80000e70:	0087f693          	andi	a3,a5,8
    80000e74:	9341                	c.srli	a4,0x30
    80000e76:	eab5                	c.bnez	a3,80000eea <__swsetup_r+0xb2>
    80000e78:	01077693          	andi	a3,a4,16
    80000e7c:	ea95                	c.bnez	a3,80000eb0 <__swsetup_r+0x78>
    80000e7e:	4725                	c.li	a4,9
    80000e80:	00e92023          	sw	a4,0(s2)
    80000e84:	0407e793          	ori	a5,a5,64
    80000e88:	00f41823          	sh	a5,16(s0)
    80000e8c:	557d                	c.li	a0,-1
    80000e8e:	a045                	c.j	80000f2e <__swsetup_r+0xf6>
    80000e90:	00002797          	auipc	a5,0x2
    80000e94:	b7078793          	addi	a5,a5,-1168 # 80002a00 <__sf_fake_stdout>
    80000e98:	00f41463          	bne	s0,a5,80000ea0 <__swsetup_r+0x68>
    80000e9c:	6880                	c.ld	s0,16(s1)
    80000e9e:	b7e9                	c.j	80000e68 <__swsetup_r+0x30>
    80000ea0:	00002797          	auipc	a5,0x2
    80000ea4:	af078793          	addi	a5,a5,-1296 # 80002990 <__sf_fake_stderr>
    80000ea8:	fcf410e3          	bne	s0,a5,80000e68 <__swsetup_r+0x30>
    80000eac:	6c80                	c.ld	s0,24(s1)
    80000eae:	bf6d                	c.j	80000e68 <__swsetup_r+0x30>
    80000eb0:	8b11                	c.andi	a4,4
    80000eb2:	c715                	c.beqz	a4,80000ede <__swsetup_r+0xa6>
    80000eb4:	702c                	c.ld	a1,96(s0)
    80000eb6:	c991                	c.beqz	a1,80000eca <__swsetup_r+0x92>
    80000eb8:	07c40793          	addi	a5,s0,124
    80000ebc:	00f58563          	beq	a1,a5,80000ec6 <__swsetup_r+0x8e>
    80000ec0:	854a                	c.mv	a0,s2
    80000ec2:	a97ff0ef          	jal	ra,80000958 <_free_r>
    80000ec6:	06043023          	sd	zero,96(s0)
    80000eca:	01045783          	lhu	a5,16(s0)
    80000ece:	00042423          	sw	zero,8(s0)
    80000ed2:	fdb7f793          	andi	a5,a5,-37
    80000ed6:	00f41823          	sh	a5,16(s0)
    80000eda:	6c1c                	c.ld	a5,24(s0)
    80000edc:	e01c                	c.sd	a5,0(s0)
    80000ede:	01045783          	lhu	a5,16(s0)
    80000ee2:	0087e793          	ori	a5,a5,8
    80000ee6:	00f41823          	sh	a5,16(s0)
    80000eea:	6c1c                	c.ld	a5,24(s0)
    80000eec:	ef89                	c.bnez	a5,80000f06 <__swsetup_r+0xce>
    80000eee:	01045783          	lhu	a5,16(s0)
    80000ef2:	20000713          	addi	a4,zero,512
    80000ef6:	2807f793          	andi	a5,a5,640
    80000efa:	00e78663          	beq	a5,a4,80000f06 <__swsetup_r+0xce>
    80000efe:	85a2                	c.mv	a1,s0
    80000f00:	854a                	c.mv	a0,s2
    80000f02:	540000ef          	jal	ra,80001442 <__smakebuf_r>
    80000f06:	01041783          	lh	a5,16(s0)
    80000f0a:	03079713          	slli	a4,a5,0x30
    80000f0e:	0017f693          	andi	a3,a5,1
    80000f12:	9341                	c.srli	a4,0x30
    80000f14:	c29d                	c.beqz	a3,80000f3a <__swsetup_r+0x102>
    80000f16:	5014                	c.lw	a3,32(s0)
    80000f18:	00042623          	sw	zero,12(s0)
    80000f1c:	40d006bb          	subw	a3,zero,a3
    80000f20:	d414                	c.sw	a3,40(s0)
    80000f22:	6c14                	c.ld	a3,24(s0)
    80000f24:	4501                	c.li	a0,0
    80000f26:	e681                	c.bnez	a3,80000f2e <__swsetup_r+0xf6>
    80000f28:	08077713          	andi	a4,a4,128
    80000f2c:	ff21                	c.bnez	a4,80000e84 <__swsetup_r+0x4c>
    80000f2e:	60e2                	c.ldsp	ra,24(sp)
    80000f30:	6442                	c.ldsp	s0,16(sp)
    80000f32:	64a2                	c.ldsp	s1,8(sp)
    80000f34:	6902                	c.ldsp	s2,0(sp)
    80000f36:	6105                	c.addi16sp	sp,32
    80000f38:	8082                	c.jr	ra
    80000f3a:	00277693          	andi	a3,a4,2
    80000f3e:	4601                	c.li	a2,0
    80000f40:	e291                	c.bnez	a3,80000f44 <__swsetup_r+0x10c>
    80000f42:	5010                	c.lw	a2,32(s0)
    80000f44:	c450                	c.sw	a2,12(s0)
    80000f46:	bff1                	c.j	80000f22 <__swsetup_r+0xea>

0000000080000f48 <__sflush_r>:
    80000f48:	0105d783          	lhu	a5,16(a1)
    80000f4c:	7179                	c.addi16sp	sp,-48
    80000f4e:	f022                	c.sdsp	s0,32(sp)
    80000f50:	ec26                	c.sdsp	s1,24(sp)
    80000f52:	f406                	c.sdsp	ra,40(sp)
    80000f54:	e84a                	c.sdsp	s2,16(sp)
    80000f56:	e44e                	c.sdsp	s3,8(sp)
    80000f58:	0087f713          	andi	a4,a5,8
    80000f5c:	84aa                	c.mv	s1,a0
    80000f5e:	842e                	c.mv	s0,a1
    80000f60:	ef79                	c.bnez	a4,8000103e <__sflush_r+0xf6>
    80000f62:	4598                	c.lw	a4,8(a1)
    80000f64:	00e04d63          	blt	zero,a4,80000f7e <__sflush_r+0x36>
    80000f68:	5db8                	c.lw	a4,120(a1)
    80000f6a:	00e04a63          	blt	zero,a4,80000f7e <__sflush_r+0x36>
    80000f6e:	4501                	c.li	a0,0
    80000f70:	70a2                	c.ldsp	ra,40(sp)
    80000f72:	7402                	c.ldsp	s0,32(sp)
    80000f74:	64e2                	c.ldsp	s1,24(sp)
    80000f76:	6942                	c.ldsp	s2,16(sp)
    80000f78:	69a2                	c.ldsp	s3,8(sp)
    80000f7a:	6145                	c.addi16sp	sp,48
    80000f7c:	8082                	c.jr	ra
    80000f7e:	6838                	c.ld	a4,80(s0)
    80000f80:	d77d                	c.beqz	a4,80000f6e <__sflush_r+0x26>
    80000f82:	0004a903          	lw	s2,0(s1)
    80000f86:	03379693          	slli	a3,a5,0x33
    80000f8a:	0004a023          	sw	zero,0(s1)
    80000f8e:	0606de63          	bge	a3,zero,8000100a <__sflush_r+0xc2>
    80000f92:	6c50                	c.ld	a2,152(s0)
    80000f94:	01045783          	lhu	a5,16(s0)
    80000f98:	8b91                	c.andi	a5,4
    80000f9a:	c799                	c.beqz	a5,80000fa8 <__sflush_r+0x60>
    80000f9c:	441c                	c.lw	a5,8(s0)
    80000f9e:	8e1d                	c.sub	a2,a5
    80000fa0:	703c                	c.ld	a5,96(s0)
    80000fa2:	c399                	c.beqz	a5,80000fa8 <__sflush_r+0x60>
    80000fa4:	5c3c                	c.lw	a5,120(s0)
    80000fa6:	8e1d                	c.sub	a2,a5
    80000fa8:	683c                	c.ld	a5,80(s0)
    80000faa:	7c0c                	c.ld	a1,56(s0)
    80000fac:	4681                	c.li	a3,0
    80000fae:	8526                	c.mv	a0,s1
    80000fb0:	9782                	c.jalr	a5
    80000fb2:	57fd                	c.li	a5,-1
    80000fb4:	01045703          	lhu	a4,16(s0)
    80000fb8:	00f51d63          	bne	a0,a5,80000fd2 <__sflush_r+0x8a>
    80000fbc:	4094                	c.lw	a3,0(s1)
    80000fbe:	47f5                	c.li	a5,29
    80000fc0:	06d7e963          	bltu	a5,a3,80001032 <__sflush_r+0xea>
    80000fc4:	204007b7          	lui	a5,0x20400
    80000fc8:	0785                	c.addi	a5,1
    80000fca:	00d7d7b3          	srl	a5,a5,a3
    80000fce:	8b85                	c.andi	a5,1
    80000fd0:	c3ad                	c.beqz	a5,80001032 <__sflush_r+0xea>
    80000fd2:	6c1c                	c.ld	a5,24(s0)
    80000fd4:	00042423          	sw	zero,8(s0)
    80000fd8:	e01c                	c.sd	a5,0(s0)
    80000fda:	03371793          	slli	a5,a4,0x33
    80000fde:	0007d863          	bge	a5,zero,80000fee <__sflush_r+0xa6>
    80000fe2:	57fd                	c.li	a5,-1
    80000fe4:	00f51463          	bne	a0,a5,80000fec <__sflush_r+0xa4>
    80000fe8:	409c                	c.lw	a5,0(s1)
    80000fea:	e391                	c.bnez	a5,80000fee <__sflush_r+0xa6>
    80000fec:	ec48                	c.sd	a0,152(s0)
    80000fee:	702c                	c.ld	a1,96(s0)
    80000ff0:	0124a023          	sw	s2,0(s1)
    80000ff4:	ddad                	c.beqz	a1,80000f6e <__sflush_r+0x26>
    80000ff6:	07c40793          	addi	a5,s0,124
    80000ffa:	00f58563          	beq	a1,a5,80001004 <__sflush_r+0xbc>
    80000ffe:	8526                	c.mv	a0,s1
    80001000:	959ff0ef          	jal	ra,80000958 <_free_r>
    80001004:	06043023          	sd	zero,96(s0)
    80001008:	b79d                	c.j	80000f6e <__sflush_r+0x26>
    8000100a:	7c0c                	c.ld	a1,56(s0)
    8000100c:	4601                	c.li	a2,0
    8000100e:	4685                	c.li	a3,1
    80001010:	8526                	c.mv	a0,s1
    80001012:	9702                	c.jalr	a4
    80001014:	57fd                	c.li	a5,-1
    80001016:	862a                	c.mv	a2,a0
    80001018:	f6f51ee3          	bne	a0,a5,80000f94 <__sflush_r+0x4c>
    8000101c:	409c                	c.lw	a5,0(s1)
    8000101e:	dbbd                	c.beqz	a5,80000f94 <__sflush_r+0x4c>
    80001020:	4775                	c.li	a4,29
    80001022:	00e78563          	beq	a5,a4,8000102c <__sflush_r+0xe4>
    80001026:	4759                	c.li	a4,22
    80001028:	04e79463          	bne	a5,a4,80001070 <__sflush_r+0x128>
    8000102c:	0124a023          	sw	s2,0(s1)
    80001030:	bf3d                	c.j	80000f6e <__sflush_r+0x26>
    80001032:	04076713          	ori	a4,a4,64
    80001036:	00e41823          	sh	a4,16(s0)
    8000103a:	557d                	c.li	a0,-1
    8000103c:	bf15                	c.j	80000f70 <__sflush_r+0x28>
    8000103e:	0185b983          	ld	s3,24(a1)
    80001042:	f20986e3          	beq	s3,zero,80000f6e <__sflush_r+0x26>
    80001046:	0005b903          	ld	s2,0(a1)
    8000104a:	8b8d                	c.andi	a5,3
    8000104c:	0135b023          	sd	s3,0(a1)
    80001050:	4139093b          	subw	s2,s2,s3
    80001054:	4701                	c.li	a4,0
    80001056:	e391                	c.bnez	a5,8000105a <__sflush_r+0x112>
    80001058:	5198                	c.lw	a4,32(a1)
    8000105a:	c458                	c.sw	a4,12(s0)
    8000105c:	f12059e3          	bge	zero,s2,80000f6e <__sflush_r+0x26>
    80001060:	643c                	c.ld	a5,72(s0)
    80001062:	7c0c                	c.ld	a1,56(s0)
    80001064:	86ca                	c.mv	a3,s2
    80001066:	864e                	c.mv	a2,s3
    80001068:	8526                	c.mv	a0,s1
    8000106a:	9782                	c.jalr	a5
    8000106c:	00a04963          	blt	zero,a0,8000107e <__sflush_r+0x136>
    80001070:	01045783          	lhu	a5,16(s0)
    80001074:	0407e793          	ori	a5,a5,64
    80001078:	00f41823          	sh	a5,16(s0)
    8000107c:	bf7d                	c.j	8000103a <__sflush_r+0xf2>
    8000107e:	99aa                	c.add	s3,a0
    80001080:	40a9093b          	subw	s2,s2,a0
    80001084:	bfe1                	c.j	8000105c <__sflush_r+0x114>

0000000080001086 <_fflush_r>:
    80001086:	6d9c                	c.ld	a5,24(a1)
    80001088:	c3a5                	c.beqz	a5,800010e8 <_fflush_r+0x62>
    8000108a:	1101                	c.addi	sp,-32
    8000108c:	e822                	c.sdsp	s0,16(sp)
    8000108e:	ec06                	c.sdsp	ra,24(sp)
    80001090:	842a                	c.mv	s0,a0
    80001092:	c519                	c.beqz	a0,800010a0 <_fflush_r+0x1a>
    80001094:	591c                	c.lw	a5,48(a0)
    80001096:	e789                	c.bnez	a5,800010a0 <_fflush_r+0x1a>
    80001098:	e42e                	c.sdsp	a1,8(sp)
    8000109a:	13c000ef          	jal	ra,800011d6 <__sinit>
    8000109e:	65a2                	c.ldsp	a1,8(sp)
    800010a0:	00002797          	auipc	a5,0x2
    800010a4:	92878793          	addi	a5,a5,-1752 # 800029c8 <__sf_fake_stdin>
    800010a8:	00f59b63          	bne	a1,a5,800010be <_fflush_r+0x38>
    800010ac:	640c                	c.ld	a1,8(s0)
    800010ae:	01059783          	lh	a5,16(a1)
    800010b2:	c795                	c.beqz	a5,800010de <_fflush_r+0x58>
    800010b4:	8522                	c.mv	a0,s0
    800010b6:	6442                	c.ldsp	s0,16(sp)
    800010b8:	60e2                	c.ldsp	ra,24(sp)
    800010ba:	6105                	c.addi16sp	sp,32
    800010bc:	b571                	c.j	80000f48 <__sflush_r>
    800010be:	00002797          	auipc	a5,0x2
    800010c2:	94278793          	addi	a5,a5,-1726 # 80002a00 <__sf_fake_stdout>
    800010c6:	00f59463          	bne	a1,a5,800010ce <_fflush_r+0x48>
    800010ca:	680c                	c.ld	a1,16(s0)
    800010cc:	b7cd                	c.j	800010ae <_fflush_r+0x28>
    800010ce:	00002797          	auipc	a5,0x2
    800010d2:	8c278793          	addi	a5,a5,-1854 # 80002990 <__sf_fake_stderr>
    800010d6:	fcf59ce3          	bne	a1,a5,800010ae <_fflush_r+0x28>
    800010da:	6c0c                	c.ld	a1,24(s0)
    800010dc:	bfc9                	c.j	800010ae <_fflush_r+0x28>
    800010de:	60e2                	c.ldsp	ra,24(sp)
    800010e0:	6442                	c.ldsp	s0,16(sp)
    800010e2:	4501                	c.li	a0,0
    800010e4:	6105                	c.addi16sp	sp,32
    800010e6:	8082                	c.jr	ra
    800010e8:	4501                	c.li	a0,0
    800010ea:	8082                	c.jr	ra

00000000800010ec <fflush>:
    800010ec:	85aa                	c.mv	a1,a0
    800010ee:	e911                	c.bnez	a0,80001102 <fflush+0x16>
    800010f0:	00000597          	auipc	a1,0x0
    800010f4:	f9658593          	addi	a1,a1,-106 # 80001086 <_fflush_r>
    800010f8:	00002517          	auipc	a0,0x2
    800010fc:	a0053503          	ld	a0,-1536(a0) # 80002af8 <_global_impure_ptr>
    80001100:	acad                	c.j	8000137a <_fwalk_reent>
    80001102:	00002517          	auipc	a0,0x2
    80001106:	afe53503          	ld	a0,-1282(a0) # 80002c00 <_impure_ptr>
    8000110a:	bfb5                	c.j	80001086 <_fflush_r>

000000008000110c <__fp_lock>:
    8000110c:	4501                	c.li	a0,0
    8000110e:	8082                	c.jr	ra

0000000080001110 <std>:
    80001110:	1141                	c.addi	sp,-16
    80001112:	e022                	c.sdsp	s0,0(sp)
    80001114:	e406                	c.sdsp	ra,8(sp)
    80001116:	842a                	c.mv	s0,a0
    80001118:	00b51823          	sh	a1,16(a0)
    8000111c:	00c51923          	sh	a2,18(a0)
    80001120:	00053023          	sd	zero,0(a0)
    80001124:	00053423          	sd	zero,8(a0)
    80001128:	0a052623          	sw	zero,172(a0)
    8000112c:	00053c23          	sd	zero,24(a0)
    80001130:	02052023          	sw	zero,32(a0)
    80001134:	02052423          	sw	zero,40(a0)
    80001138:	4621                	c.li	a2,8
    8000113a:	4581                	c.li	a1,0
    8000113c:	0a450513          	addi	a0,a0,164
    80001140:	3a4000ef          	jal	ra,800014e4 <memset>
    80001144:	00001797          	auipc	a5,0x1
    80001148:	81278793          	addi	a5,a5,-2030 # 80001956 <__sread>
    8000114c:	e03c                	c.sd	a5,64(s0)
    8000114e:	00001797          	auipc	a5,0x1
    80001152:	83e78793          	addi	a5,a5,-1986 # 8000198c <__swrite>
    80001156:	e43c                	c.sd	a5,72(s0)
    80001158:	00001797          	auipc	a5,0x1
    8000115c:	88478793          	addi	a5,a5,-1916 # 800019dc <__sseek>
    80001160:	e83c                	c.sd	a5,80(s0)
    80001162:	00001797          	auipc	a5,0x1
    80001166:	8b278793          	addi	a5,a5,-1870 # 80001a14 <__sclose>
    8000116a:	60a2                	c.ldsp	ra,8(sp)
    8000116c:	fc00                	c.sd	s0,56(s0)
    8000116e:	ec3c                	c.sd	a5,88(s0)
    80001170:	6402                	c.ldsp	s0,0(sp)
    80001172:	0141                	c.addi	sp,16
    80001174:	8082                	c.jr	ra

0000000080001176 <_cleanup_r>:
    80001176:	00000597          	auipc	a1,0x0
    8000117a:	f1058593          	addi	a1,a1,-240 # 80001086 <_fflush_r>
    8000117e:	aaf5                	c.j	8000137a <_fwalk_reent>

0000000080001180 <__fp_unlock>:
    80001180:	4501                	c.li	a0,0
    80001182:	8082                	c.jr	ra

0000000080001184 <__sfmoreglue>:
    80001184:	1101                	c.addi	sp,-32
    80001186:	e426                	c.sdsp	s1,8(sp)
    80001188:	0b000613          	addi	a2,zero,176
    8000118c:	fff5849b          	addiw	s1,a1,-1
    80001190:	02c484b3          	mul	s1,s1,a2
    80001194:	e04a                	c.sdsp	s2,0(sp)
    80001196:	892e                	c.mv	s2,a1
    80001198:	e822                	c.sdsp	s0,16(sp)
    8000119a:	ec06                	c.sdsp	ra,24(sp)
    8000119c:	0c848593          	addi	a1,s1,200
    800011a0:	85fff0ef          	jal	ra,800009fe <_malloc_r>
    800011a4:	842a                	c.mv	s0,a0
    800011a6:	cd01                	c.beqz	a0,800011be <__sfmoreglue+0x3a>
    800011a8:	00053023          	sd	zero,0(a0)
    800011ac:	01252423          	sw	s2,8(a0)
    800011b0:	0561                	c.addi	a0,24
    800011b2:	e808                	c.sd	a0,16(s0)
    800011b4:	0b048613          	addi	a2,s1,176
    800011b8:	4581                	c.li	a1,0
    800011ba:	32a000ef          	jal	ra,800014e4 <memset>
    800011be:	60e2                	c.ldsp	ra,24(sp)
    800011c0:	8522                	c.mv	a0,s0
    800011c2:	6442                	c.ldsp	s0,16(sp)
    800011c4:	64a2                	c.ldsp	s1,8(sp)
    800011c6:	6902                	c.ldsp	s2,0(sp)
    800011c8:	6105                	c.addi16sp	sp,32
    800011ca:	8082                	c.jr	ra

00000000800011cc <_cleanup>:
    800011cc:	00002517          	auipc	a0,0x2
    800011d0:	92c53503          	ld	a0,-1748(a0) # 80002af8 <_global_impure_ptr>
    800011d4:	b74d                	c.j	80001176 <_cleanup_r>

00000000800011d6 <__sinit>:
    800011d6:	591c                	c.lw	a5,48(a0)
    800011d8:	ebad                	c.bnez	a5,8000124a <__sinit+0x74>
    800011da:	1141                	c.addi	sp,-16
    800011dc:	e022                	c.sdsp	s0,0(sp)
    800011de:	e406                	c.sdsp	ra,8(sp)
    800011e0:	00000797          	auipc	a5,0x0
    800011e4:	f9678793          	addi	a5,a5,-106 # 80001176 <_cleanup_r>
    800011e8:	e53c                	c.sd	a5,72(a0)
    800011ea:	08053023          	sd	zero,128(a0)
    800011ee:	08052423          	sw	zero,136(a0)
    800011f2:	08053823          	sd	zero,144(a0)
    800011f6:	00002797          	auipc	a5,0x2
    800011fa:	9027b783          	ld	a5,-1790(a5) # 80002af8 <_global_impure_ptr>
    800011fe:	842a                	c.mv	s0,a0
    80001200:	00f51463          	bne	a0,a5,80001208 <__sinit+0x32>
    80001204:	4785                	c.li	a5,1
    80001206:	d91c                	c.sw	a5,48(a0)
    80001208:	8522                	c.mv	a0,s0
    8000120a:	042000ef          	jal	ra,8000124c <__sfp>
    8000120e:	e408                	c.sd	a0,8(s0)
    80001210:	8522                	c.mv	a0,s0
    80001212:	03a000ef          	jal	ra,8000124c <__sfp>
    80001216:	e808                	c.sd	a0,16(s0)
    80001218:	8522                	c.mv	a0,s0
    8000121a:	032000ef          	jal	ra,8000124c <__sfp>
    8000121e:	ec08                	c.sd	a0,24(s0)
    80001220:	6408                	c.ld	a0,8(s0)
    80001222:	4601                	c.li	a2,0
    80001224:	4591                	c.li	a1,4
    80001226:	eebff0ef          	jal	ra,80001110 <std>
    8000122a:	6808                	c.ld	a0,16(s0)
    8000122c:	4605                	c.li	a2,1
    8000122e:	45a5                	c.li	a1,9
    80001230:	ee1ff0ef          	jal	ra,80001110 <std>
    80001234:	6c08                	c.ld	a0,24(s0)
    80001236:	4609                	c.li	a2,2
    80001238:	45c9                	c.li	a1,18
    8000123a:	ed7ff0ef          	jal	ra,80001110 <std>
    8000123e:	4785                	c.li	a5,1
    80001240:	60a2                	c.ldsp	ra,8(sp)
    80001242:	d81c                	c.sw	a5,48(s0)
    80001244:	6402                	c.ldsp	s0,0(sp)
    80001246:	0141                	c.addi	sp,16
    80001248:	8082                	c.jr	ra
    8000124a:	8082                	c.jr	ra

000000008000124c <__sfp>:
    8000124c:	1101                	c.addi	sp,-32
    8000124e:	e426                	c.sdsp	s1,8(sp)
    80001250:	00002497          	auipc	s1,0x2
    80001254:	8a84b483          	ld	s1,-1880(s1) # 80002af8 <_global_impure_ptr>
    80001258:	589c                	c.lw	a5,48(s1)
    8000125a:	e04a                	c.sdsp	s2,0(sp)
    8000125c:	ec06                	c.sdsp	ra,24(sp)
    8000125e:	e822                	c.sdsp	s0,16(sp)
    80001260:	892a                	c.mv	s2,a0
    80001262:	e781                	c.bnez	a5,8000126a <__sfp+0x1e>
    80001264:	8526                	c.mv	a0,s1
    80001266:	f71ff0ef          	jal	ra,800011d6 <__sinit>
    8000126a:	08048493          	addi	s1,s1,128
    8000126e:	6880                	c.ld	s0,16(s1)
    80001270:	449c                	c.lw	a5,8(s1)
    80001272:	37fd                	c.addiw	a5,-1
    80001274:	0007d663          	bge	a5,zero,80001280 <__sfp+0x34>
    80001278:	609c                	c.ld	a5,0(s1)
    8000127a:	cfa9                	c.beqz	a5,800012d4 <__sfp+0x88>
    8000127c:	6084                	c.ld	s1,0(s1)
    8000127e:	bfc5                	c.j	8000126e <__sfp+0x22>
    80001280:	01041703          	lh	a4,16(s0)
    80001284:	e729                	c.bnez	a4,800012ce <__sfp+0x82>
    80001286:	77c1                	c.lui	a5,0xffff0
    80001288:	0785                	c.addi	a5,1
    8000128a:	0a042623          	sw	zero,172(s0)
    8000128e:	00043023          	sd	zero,0(s0)
    80001292:	00043423          	sd	zero,8(s0)
    80001296:	c81c                	c.sw	a5,16(s0)
    80001298:	00043c23          	sd	zero,24(s0)
    8000129c:	02042023          	sw	zero,32(s0)
    800012a0:	02042423          	sw	zero,40(s0)
    800012a4:	4621                	c.li	a2,8
    800012a6:	4581                	c.li	a1,0
    800012a8:	0a440513          	addi	a0,s0,164
    800012ac:	238000ef          	jal	ra,800014e4 <memset>
    800012b0:	06043023          	sd	zero,96(s0)
    800012b4:	06042423          	sw	zero,104(s0)
    800012b8:	08043023          	sd	zero,128(s0)
    800012bc:	08042423          	sw	zero,136(s0)
    800012c0:	60e2                	c.ldsp	ra,24(sp)
    800012c2:	8522                	c.mv	a0,s0
    800012c4:	6442                	c.ldsp	s0,16(sp)
    800012c6:	64a2                	c.ldsp	s1,8(sp)
    800012c8:	6902                	c.ldsp	s2,0(sp)
    800012ca:	6105                	c.addi16sp	sp,32
    800012cc:	8082                	c.jr	ra
    800012ce:	0b040413          	addi	s0,s0,176
    800012d2:	b745                	c.j	80001272 <__sfp+0x26>
    800012d4:	4591                	c.li	a1,4
    800012d6:	854a                	c.mv	a0,s2
    800012d8:	eadff0ef          	jal	ra,80001184 <__sfmoreglue>
    800012dc:	e088                	c.sd	a0,0(s1)
    800012de:	842a                	c.mv	s0,a0
    800012e0:	fd51                	c.bnez	a0,8000127c <__sfp+0x30>
    800012e2:	47b1                	c.li	a5,12
    800012e4:	00f92023          	sw	a5,0(s2)
    800012e8:	bfe1                	c.j	800012c0 <__sfp+0x74>

00000000800012ea <__sfp_lock_acquire>:
    800012ea:	8082                	c.jr	ra

00000000800012ec <__sfp_lock_release>:
    800012ec:	8082                	c.jr	ra

00000000800012ee <__sinit_lock_acquire>:
    800012ee:	8082                	c.jr	ra

00000000800012f0 <__sinit_lock_release>:
    800012f0:	8082                	c.jr	ra

00000000800012f2 <__fp_lock_all>:
    800012f2:	00000597          	auipc	a1,0x0
    800012f6:	e1a58593          	addi	a1,a1,-486 # 8000110c <__fp_lock>
    800012fa:	00002517          	auipc	a0,0x2
    800012fe:	90653503          	ld	a0,-1786(a0) # 80002c00 <_impure_ptr>
    80001302:	a811                	c.j	80001316 <_fwalk>

0000000080001304 <__fp_unlock_all>:
    80001304:	00000597          	auipc	a1,0x0
    80001308:	e7c58593          	addi	a1,a1,-388 # 80001180 <__fp_unlock>
    8000130c:	00002517          	auipc	a0,0x2
    80001310:	8f453503          	ld	a0,-1804(a0) # 80002c00 <_impure_ptr>
    80001314:	a009                	c.j	80001316 <_fwalk>

0000000080001316 <_fwalk>:
    80001316:	7139                	c.addi16sp	sp,-64
    80001318:	f822                	c.sdsp	s0,48(sp)
    8000131a:	f426                	c.sdsp	s1,40(sp)
    8000131c:	ec4e                	c.sdsp	s3,24(sp)
    8000131e:	e456                	c.sdsp	s5,8(sp)
    80001320:	e05a                	c.sdsp	s6,0(sp)
    80001322:	fc06                	c.sdsp	ra,56(sp)
    80001324:	f04a                	c.sdsp	s2,32(sp)
    80001326:	e852                	c.sdsp	s4,16(sp)
    80001328:	89ae                	c.mv	s3,a1
    8000132a:	08050413          	addi	s0,a0,128
    8000132e:	4481                	c.li	s1,0
    80001330:	4a85                	c.li	s5,1
    80001332:	5b7d                	c.li	s6,-1
    80001334:	01043903          	ld	s2,16(s0)
    80001338:	00842a03          	lw	s4,8(s0)
    8000133c:	3a7d                	c.addiw	s4,-1
    8000133e:	000a5f63          	bge	s4,zero,8000135c <_fwalk+0x46>
    80001342:	6000                	c.ld	s0,0(s0)
    80001344:	f865                	c.bnez	s0,80001334 <_fwalk+0x1e>
    80001346:	70e2                	c.ldsp	ra,56(sp)
    80001348:	7442                	c.ldsp	s0,48(sp)
    8000134a:	7902                	c.ldsp	s2,32(sp)
    8000134c:	69e2                	c.ldsp	s3,24(sp)
    8000134e:	6a42                	c.ldsp	s4,16(sp)
    80001350:	6aa2                	c.ldsp	s5,8(sp)
    80001352:	6b02                	c.ldsp	s6,0(sp)
    80001354:	8526                	c.mv	a0,s1
    80001356:	74a2                	c.ldsp	s1,40(sp)
    80001358:	6121                	c.addi16sp	sp,64
    8000135a:	8082                	c.jr	ra
    8000135c:	01095783          	lhu	a5,16(s2)
    80001360:	00fafa63          	bgeu	s5,a5,80001374 <_fwalk+0x5e>
    80001364:	01291783          	lh	a5,18(s2)
    80001368:	01678663          	beq	a5,s6,80001374 <_fwalk+0x5e>
    8000136c:	854a                	c.mv	a0,s2
    8000136e:	9982                	c.jalr	s3
    80001370:	8cc9                	c.or	s1,a0
    80001372:	2481                	c.addiw	s1,0
    80001374:	0b090913          	addi	s2,s2,176
    80001378:	b7d1                	c.j	8000133c <_fwalk+0x26>

000000008000137a <_fwalk_reent>:
    8000137a:	715d                	c.addi16sp	sp,-80
    8000137c:	e0a2                	c.sdsp	s0,64(sp)
    8000137e:	fc26                	c.sdsp	s1,56(sp)
    80001380:	f44e                	c.sdsp	s3,40(sp)
    80001382:	f052                	c.sdsp	s4,32(sp)
    80001384:	e85a                	c.sdsp	s6,16(sp)
    80001386:	e45e                	c.sdsp	s7,8(sp)
    80001388:	e486                	c.sdsp	ra,72(sp)
    8000138a:	f84a                	c.sdsp	s2,48(sp)
    8000138c:	ec56                	c.sdsp	s5,24(sp)
    8000138e:	89aa                	c.mv	s3,a0
    80001390:	8a2e                	c.mv	s4,a1
    80001392:	08050493          	addi	s1,a0,128
    80001396:	4401                	c.li	s0,0
    80001398:	4b05                	c.li	s6,1
    8000139a:	5bfd                	c.li	s7,-1
    8000139c:	0104b903          	ld	s2,16(s1)
    800013a0:	0084aa83          	lw	s5,8(s1)
    800013a4:	3afd                	c.addiw	s5,-1
    800013a6:	020ad063          	bge	s5,zero,800013c6 <_fwalk_reent+0x4c>
    800013aa:	6084                	c.ld	s1,0(s1)
    800013ac:	f8e5                	c.bnez	s1,8000139c <_fwalk_reent+0x22>
    800013ae:	60a6                	c.ldsp	ra,72(sp)
    800013b0:	8522                	c.mv	a0,s0
    800013b2:	6406                	c.ldsp	s0,64(sp)
    800013b4:	74e2                	c.ldsp	s1,56(sp)
    800013b6:	7942                	c.ldsp	s2,48(sp)
    800013b8:	79a2                	c.ldsp	s3,40(sp)
    800013ba:	7a02                	c.ldsp	s4,32(sp)
    800013bc:	6ae2                	c.ldsp	s5,24(sp)
    800013be:	6b42                	c.ldsp	s6,16(sp)
    800013c0:	6ba2                	c.ldsp	s7,8(sp)
    800013c2:	6161                	c.addi16sp	sp,80
    800013c4:	8082                	c.jr	ra
    800013c6:	01095783          	lhu	a5,16(s2)
    800013ca:	00fb7b63          	bgeu	s6,a5,800013e0 <_fwalk_reent+0x66>
    800013ce:	01291783          	lh	a5,18(s2)
    800013d2:	01778763          	beq	a5,s7,800013e0 <_fwalk_reent+0x66>
    800013d6:	85ca                	c.mv	a1,s2
    800013d8:	854e                	c.mv	a0,s3
    800013da:	9a02                	c.jalr	s4
    800013dc:	8c49                	c.or	s0,a0
    800013de:	2401                	c.addiw	s0,0
    800013e0:	0b090913          	addi	s2,s2,176
    800013e4:	b7c1                	c.j	800013a4 <_fwalk_reent+0x2a>

00000000800013e6 <__swhatbuf_r>:
    800013e6:	7175                	c.addi16sp	sp,-144
    800013e8:	f8ca                	c.sdsp	s2,112(sp)
    800013ea:	892e                	c.mv	s2,a1
    800013ec:	01259583          	lh	a1,18(a1)
    800013f0:	e122                	c.sdsp	s0,128(sp)
    800013f2:	fca6                	c.sdsp	s1,120(sp)
    800013f4:	e506                	c.sdsp	ra,136(sp)
    800013f6:	8432                	c.mv	s0,a2
    800013f8:	84b6                	c.mv	s1,a3
    800013fa:	0005dc63          	bge	a1,zero,80001412 <__swhatbuf_r+0x2c>
    800013fe:	01095783          	lhu	a5,16(s2)
    80001402:	0004a023          	sw	zero,0(s1)
    80001406:	0807f793          	andi	a5,a5,128
    8000140a:	e395                	c.bnez	a5,8000142e <__swhatbuf_r+0x48>
    8000140c:	40000793          	addi	a5,zero,1024
    80001410:	a00d                	c.j	80001432 <__swhatbuf_r+0x4c>
    80001412:	0030                	c.addi4spn	a2,sp,8
    80001414:	65a000ef          	jal	ra,80001a6e <_fstat_r>
    80001418:	fe0543e3          	blt	a0,zero,800013fe <__swhatbuf_r+0x18>
    8000141c:	47b2                	c.lwsp	a5,12(sp)
    8000141e:	673d                	c.lui	a4,0xf
    80001420:	8ff9                	c.and	a5,a4
    80001422:	6709                	c.lui	a4,0x2
    80001424:	8f99                	c.sub	a5,a4
    80001426:	0017b793          	sltiu	a5,a5,1
    8000142a:	c09c                	c.sw	a5,0(s1)
    8000142c:	b7c5                	c.j	8000140c <__swhatbuf_r+0x26>
    8000142e:	04000793          	addi	a5,zero,64
    80001432:	60aa                	c.ldsp	ra,136(sp)
    80001434:	e01c                	c.sd	a5,0(s0)
    80001436:	640a                	c.ldsp	s0,128(sp)
    80001438:	74e6                	c.ldsp	s1,120(sp)
    8000143a:	7946                	c.ldsp	s2,112(sp)
    8000143c:	4501                	c.li	a0,0
    8000143e:	6149                	c.addi16sp	sp,144
    80001440:	8082                	c.jr	ra

0000000080001442 <__smakebuf_r>:
    80001442:	0105d783          	lhu	a5,16(a1)
    80001446:	7179                	c.addi16sp	sp,-48
    80001448:	f022                	c.sdsp	s0,32(sp)
    8000144a:	f406                	c.sdsp	ra,40(sp)
    8000144c:	ec26                	c.sdsp	s1,24(sp)
    8000144e:	e84a                	c.sdsp	s2,16(sp)
    80001450:	8b89                	c.andi	a5,2
    80001452:	842e                	c.mv	s0,a1
    80001454:	cf89                	c.beqz	a5,8000146e <__smakebuf_r+0x2c>
    80001456:	07f40793          	addi	a5,s0,127
    8000145a:	e01c                	c.sd	a5,0(s0)
    8000145c:	ec1c                	c.sd	a5,24(s0)
    8000145e:	4785                	c.li	a5,1
    80001460:	d01c                	c.sw	a5,32(s0)
    80001462:	70a2                	c.ldsp	ra,40(sp)
    80001464:	7402                	c.ldsp	s0,32(sp)
    80001466:	64e2                	c.ldsp	s1,24(sp)
    80001468:	6942                	c.ldsp	s2,16(sp)
    8000146a:	6145                	c.addi16sp	sp,48
    8000146c:	8082                	c.jr	ra
    8000146e:	0054                	c.addi4spn	a3,sp,4
    80001470:	0030                	c.addi4spn	a2,sp,8
    80001472:	892a                	c.mv	s2,a0
    80001474:	f73ff0ef          	jal	ra,800013e6 <__swhatbuf_r>
    80001478:	65a2                	c.ldsp	a1,8(sp)
    8000147a:	84aa                	c.mv	s1,a0
    8000147c:	854a                	c.mv	a0,s2
    8000147e:	d80ff0ef          	jal	ra,800009fe <_malloc_r>
    80001482:	ed01                	c.bnez	a0,8000149a <__smakebuf_r+0x58>
    80001484:	01041783          	lh	a5,16(s0)
    80001488:	2007f713          	andi	a4,a5,512
    8000148c:	fb79                	c.bnez	a4,80001462 <__smakebuf_r+0x20>
    8000148e:	9bf1                	c.andi	a5,-4
    80001490:	0027e793          	ori	a5,a5,2
    80001494:	00f41823          	sh	a5,16(s0)
    80001498:	bf7d                	c.j	80001456 <__smakebuf_r+0x14>
    8000149a:	00000797          	auipc	a5,0x0
    8000149e:	cdc78793          	addi	a5,a5,-804 # 80001176 <_cleanup_r>
    800014a2:	04f93423          	sd	a5,72(s2)
    800014a6:	01045783          	lhu	a5,16(s0)
    800014aa:	e008                	c.sd	a0,0(s0)
    800014ac:	ec08                	c.sd	a0,24(s0)
    800014ae:	0807e793          	ori	a5,a5,128
    800014b2:	00f41823          	sh	a5,16(s0)
    800014b6:	67a2                	c.ldsp	a5,8(sp)
    800014b8:	d01c                	c.sw	a5,32(s0)
    800014ba:	4792                	c.lwsp	a5,4(sp)
    800014bc:	cf91                	c.beqz	a5,800014d8 <__smakebuf_r+0x96>
    800014be:	01241583          	lh	a1,18(s0)
    800014c2:	854a                	c.mv	a0,s2
    800014c4:	0c1000ef          	jal	ra,80001d84 <_isatty_r>
    800014c8:	c901                	c.beqz	a0,800014d8 <__smakebuf_r+0x96>
    800014ca:	01045783          	lhu	a5,16(s0)
    800014ce:	9bf1                	c.andi	a5,-4
    800014d0:	0017e793          	ori	a5,a5,1
    800014d4:	00f41823          	sh	a5,16(s0)
    800014d8:	01045503          	lhu	a0,16(s0)
    800014dc:	8cc9                	c.or	s1,a0
    800014de:	00941823          	sh	s1,16(s0)
    800014e2:	b741                	c.j	80001462 <__smakebuf_r+0x20>

00000000800014e4 <memset>:
    800014e4:	832a                	c.mv	t1,a0
    800014e6:	c611                	c.beqz	a2,800014f2 <memset+0xe>
    800014e8:	00b30023          	sb	a1,0(t1)
    800014ec:	167d                	c.addi	a2,-1
    800014ee:	0305                	c.addi	t1,1
    800014f0:	fe65                	c.bnez	a2,800014e8 <memset+0x4>
    800014f2:	8082                	c.jr	ra

00000000800014f4 <__malloc_lock>:
    800014f4:	8082                	c.jr	ra

00000000800014f6 <__malloc_unlock>:
    800014f6:	8082                	c.jr	ra

00000000800014f8 <__sfputc_r>:
    800014f8:	465c                	c.lw	a5,12(a2)
    800014fa:	37fd                	c.addiw	a5,-1
    800014fc:	c65c                	c.sw	a5,12(a2)
    800014fe:	02079693          	slli	a3,a5,0x20
    80001502:	0007871b          	addiw	a4,a5,0
    80001506:	0006da63          	bge	a3,zero,8000151a <__sfputc_r+0x22>
    8000150a:	561c                	c.lw	a5,40(a2)
    8000150c:	00f74563          	blt	a4,a5,80001516 <__sfputc_r+0x1e>
    80001510:	47a9                	c.li	a5,10
    80001512:	00f59463          	bne	a1,a5,8000151a <__sfputc_r+0x22>
    80001516:	84fff06f          	jal	zero,80000d64 <__swbuf_r>
    8000151a:	621c                	c.ld	a5,0(a2)
    8000151c:	852e                	c.mv	a0,a1
    8000151e:	00178713          	addi	a4,a5,1
    80001522:	e218                	c.sd	a4,0(a2)
    80001524:	00b78023          	sb	a1,0(a5)
    80001528:	8082                	c.jr	ra

000000008000152a <__sfputs_r>:
    8000152a:	7179                	c.addi16sp	sp,-48
    8000152c:	f022                	c.sdsp	s0,32(sp)
    8000152e:	ec26                	c.sdsp	s1,24(sp)
    80001530:	e84a                	c.sdsp	s2,16(sp)
    80001532:	e44e                	c.sdsp	s3,8(sp)
    80001534:	e052                	c.sdsp	s4,0(sp)
    80001536:	f406                	c.sdsp	ra,40(sp)
    80001538:	892a                	c.mv	s2,a0
    8000153a:	89ae                	c.mv	s3,a1
    8000153c:	8432                	c.mv	s0,a2
    8000153e:	00d604b3          	add	s1,a2,a3
    80001542:	5a7d                	c.li	s4,-1
    80001544:	00941463          	bne	s0,s1,8000154c <__sfputs_r+0x22>
    80001548:	4501                	c.li	a0,0
    8000154a:	a811                	c.j	8000155e <__sfputs_r+0x34>
    8000154c:	00044583          	lbu	a1,0(s0)
    80001550:	864e                	c.mv	a2,s3
    80001552:	854a                	c.mv	a0,s2
    80001554:	fa5ff0ef          	jal	ra,800014f8 <__sfputc_r>
    80001558:	0405                	c.addi	s0,1
    8000155a:	ff4515e3          	bne	a0,s4,80001544 <__sfputs_r+0x1a>
    8000155e:	70a2                	c.ldsp	ra,40(sp)
    80001560:	7402                	c.ldsp	s0,32(sp)
    80001562:	64e2                	c.ldsp	s1,24(sp)
    80001564:	6942                	c.ldsp	s2,16(sp)
    80001566:	69a2                	c.ldsp	s3,8(sp)
    80001568:	6a02                	c.ldsp	s4,0(sp)
    8000156a:	6145                	c.addi16sp	sp,48
    8000156c:	8082                	c.jr	ra

000000008000156e <__sprint_r>:
    8000156e:	6a1c                	c.ld	a5,16(a2)
    80001570:	1141                	c.addi	sp,-16
    80001572:	e022                	c.sdsp	s0,0(sp)
    80001574:	e406                	c.sdsp	ra,8(sp)
    80001576:	8432                	c.mv	s0,a2
    80001578:	eb81                	c.bnez	a5,80001588 <__sprint_r+0x1a>
    8000157a:	00062423          	sw	zero,8(a2)
    8000157e:	4501                	c.li	a0,0
    80001580:	60a2                	c.ldsp	ra,8(sp)
    80001582:	6402                	c.ldsp	s0,0(sp)
    80001584:	0141                	c.addi	sp,16
    80001586:	8082                	c.jr	ra
    80001588:	510000ef          	jal	ra,80001a98 <__sfvwrite_r>
    8000158c:	00043823          	sd	zero,16(s0)
    80001590:	00042423          	sw	zero,8(s0)
    80001594:	b7f5                	c.j	80001580 <__sprint_r+0x12>

0000000080001596 <_vfiprintf_r>:
    80001596:	7155                	c.addi16sp	sp,-208
    80001598:	e1a2                	c.sdsp	s0,192(sp)
    8000159a:	fd26                	c.sdsp	s1,184(sp)
    8000159c:	f94a                	c.sdsp	s2,176(sp)
    8000159e:	f54e                	c.sdsp	s3,168(sp)
    800015a0:	f152                	c.sdsp	s4,160(sp)
    800015a2:	e586                	c.sdsp	ra,200(sp)
    800015a4:	ed56                	c.sdsp	s5,152(sp)
    800015a6:	e95a                	c.sdsp	s6,144(sp)
    800015a8:	e55e                	c.sdsp	s7,136(sp)
    800015aa:	e162                	c.sdsp	s8,128(sp)
    800015ac:	fce6                	c.sdsp	s9,120(sp)
    800015ae:	f8ea                	c.sdsp	s10,112(sp)
    800015b0:	89aa                	c.mv	s3,a0
    800015b2:	84ae                	c.mv	s1,a1
    800015b4:	8932                	c.mv	s2,a2
    800015b6:	8436                	c.mv	s0,a3
    800015b8:	4a01                	c.li	s4,0
    800015ba:	c509                	c.beqz	a0,800015c4 <_vfiprintf_r+0x2e>
    800015bc:	591c                	c.lw	a5,48(a0)
    800015be:	e399                	c.bnez	a5,800015c4 <_vfiprintf_r+0x2e>
    800015c0:	c17ff0ef          	jal	ra,800011d6 <__sinit>
    800015c4:	00001797          	auipc	a5,0x1
    800015c8:	40478793          	addi	a5,a5,1028 # 800029c8 <__sf_fake_stdin>
    800015cc:	0cf49e63          	bne	s1,a5,800016a8 <_vfiprintf_r+0x112>
    800015d0:	0089b483          	ld	s1,8(s3)
    800015d4:	0104d783          	lhu	a5,16(s1)
    800015d8:	8ba1                	c.andi	a5,8
    800015da:	cbed                	c.beqz	a5,800016cc <_vfiprintf_r+0x136>
    800015dc:	6c9c                	c.ld	a5,24(s1)
    800015de:	c7fd                	c.beqz	a5,800016cc <_vfiprintf_r+0x136>
    800015e0:	02000793          	addi	a5,zero,32
    800015e4:	02f104a3          	sb	a5,41(sp)
    800015e8:	5afd                	c.li	s5,-1
    800015ea:	03000793          	addi	a5,zero,48
    800015ee:	d202                	c.swsp	zero,36(sp)
    800015f0:	02f10523          	sb	a5,42(sp)
    800015f4:	e422                	c.sdsp	s0,8(sp)
    800015f6:	02500b93          	addi	s7,zero,37
    800015fa:	020a9c13          	slli	s8,s5,0x20
    800015fe:	00001b17          	auipc	s6,0x1
    80001602:	43ab0b13          	addi	s6,s6,1082 # 80002a38 <__sf_fake_stdout+0x38>
    80001606:	4c85                	c.li	s9,1
    80001608:	844a                	c.mv	s0,s2
    8000160a:	00044783          	lbu	a5,0(s0)
    8000160e:	c399                	c.beqz	a5,80001614 <_vfiprintf_r+0x7e>
    80001610:	0f779263          	bne	a5,s7,800016f4 <_vfiprintf_r+0x15e>
    80001614:	41240d3b          	subw	s10,s0,s2
    80001618:	000d0e63          	beq	s10,zero,80001634 <_vfiprintf_r+0x9e>
    8000161c:	86ea                	c.mv	a3,s10
    8000161e:	864a                	c.mv	a2,s2
    80001620:	85a6                	c.mv	a1,s1
    80001622:	854e                	c.mv	a0,s3
    80001624:	f07ff0ef          	jal	ra,8000152a <__sfputs_r>
    80001628:	1f550d63          	beq	a0,s5,80001822 <_vfiprintf_r+0x28c>
    8000162c:	5792                	c.lwsp	a5,36(sp)
    8000162e:	01a787bb          	addw	a5,a5,s10
    80001632:	d23e                	c.swsp	a5,36(sp)
    80001634:	00044783          	lbu	a5,0(s0)
    80001638:	1e078563          	beq	a5,zero,80001822 <_vfiprintf_r+0x28c>
    8000163c:	00140913          	addi	s2,s0,1
    80001640:	e862                	c.sdsp	s8,16(sp)
    80001642:	ec02                	c.sdsp	zero,24(sp)
    80001644:	040109a3          	sb	zero,83(sp)
    80001648:	d482                	c.swsp	zero,104(sp)
    8000164a:	00094583          	lbu	a1,0(s2)
    8000164e:	4615                	c.li	a2,5
    80001650:	855a                	c.mv	a0,s6
    80001652:	786000ef          	jal	ra,80001dd8 <memchr>
    80001656:	00190413          	addi	s0,s2,1
    8000165a:	ed59                	c.bnez	a0,800016f8 <_vfiprintf_r+0x162>
    8000165c:	47c2                	c.lwsp	a5,16(sp)
    8000165e:	0107f713          	andi	a4,a5,16
    80001662:	c709                	c.beqz	a4,8000166c <_vfiprintf_r+0xd6>
    80001664:	02000713          	addi	a4,zero,32
    80001668:	04e109a3          	sb	a4,83(sp)
    8000166c:	0087f713          	andi	a4,a5,8
    80001670:	c709                	c.beqz	a4,8000167a <_vfiprintf_r+0xe4>
    80001672:	02b00713          	addi	a4,zero,43
    80001676:	04e109a3          	sb	a4,83(sp)
    8000167a:	00094683          	lbu	a3,0(s2)
    8000167e:	02a00713          	addi	a4,zero,42
    80001682:	08e68463          	beq	a3,a4,8000170a <_vfiprintf_r+0x174>
    80001686:	47f2                	c.lwsp	a5,28(sp)
    80001688:	844a                	c.mv	s0,s2
    8000168a:	4681                	c.li	a3,0
    8000168c:	4625                	c.li	a2,9
    8000168e:	4829                	c.li	a6,10
    80001690:	00044703          	lbu	a4,0(s0)
    80001694:	00140513          	addi	a0,s0,1
    80001698:	fd07059b          	addiw	a1,a4,-48
    8000169c:	872e                	c.mv	a4,a1
    8000169e:	0ab67b63          	bgeu	a2,a1,80001754 <_vfiprintf_r+0x1be>
    800016a2:	cea5                	c.beqz	a3,8000171a <_vfiprintf_r+0x184>
    800016a4:	ce3e                	c.swsp	a5,28(sp)
    800016a6:	a895                	c.j	8000171a <_vfiprintf_r+0x184>
    800016a8:	00001797          	auipc	a5,0x1
    800016ac:	35878793          	addi	a5,a5,856 # 80002a00 <__sf_fake_stdout>
    800016b0:	00f49563          	bne	s1,a5,800016ba <_vfiprintf_r+0x124>
    800016b4:	0109b483          	ld	s1,16(s3)
    800016b8:	bf31                	c.j	800015d4 <_vfiprintf_r+0x3e>
    800016ba:	00001797          	auipc	a5,0x1
    800016be:	2d678793          	addi	a5,a5,726 # 80002990 <__sf_fake_stderr>
    800016c2:	f0f499e3          	bne	s1,a5,800015d4 <_vfiprintf_r+0x3e>
    800016c6:	0189b483          	ld	s1,24(s3)
    800016ca:	b729                	c.j	800015d4 <_vfiprintf_r+0x3e>
    800016cc:	85a6                	c.mv	a1,s1
    800016ce:	854e                	c.mv	a0,s3
    800016d0:	f68ff0ef          	jal	ra,80000e38 <__swsetup_r>
    800016d4:	d511                	c.beqz	a0,800015e0 <_vfiprintf_r+0x4a>
    800016d6:	557d                	c.li	a0,-1
    800016d8:	60ae                	c.ldsp	ra,200(sp)
    800016da:	640e                	c.ldsp	s0,192(sp)
    800016dc:	74ea                	c.ldsp	s1,184(sp)
    800016de:	794a                	c.ldsp	s2,176(sp)
    800016e0:	79aa                	c.ldsp	s3,168(sp)
    800016e2:	7a0a                	c.ldsp	s4,160(sp)
    800016e4:	6aea                	c.ldsp	s5,152(sp)
    800016e6:	6b4a                	c.ldsp	s6,144(sp)
    800016e8:	6baa                	c.ldsp	s7,136(sp)
    800016ea:	6c0a                	c.ldsp	s8,128(sp)
    800016ec:	7ce6                	c.ldsp	s9,120(sp)
    800016ee:	7d46                	c.ldsp	s10,112(sp)
    800016f0:	6169                	c.addi16sp	sp,208
    800016f2:	8082                	c.jr	ra
    800016f4:	0405                	c.addi	s0,1
    800016f6:	bf11                	c.j	8000160a <_vfiprintf_r+0x74>
    800016f8:	47c2                	c.lwsp	a5,16(sp)
    800016fa:	41650533          	sub	a0,a0,s6
    800016fe:	00ac953b          	sllw	a0,s9,a0
    80001702:	8d5d                	c.or	a0,a5
    80001704:	c82a                	c.swsp	a0,16(sp)
    80001706:	8922                	c.mv	s2,s0
    80001708:	b789                	c.j	8000164a <_vfiprintf_r+0xb4>
    8000170a:	6722                	c.ldsp	a4,8(sp)
    8000170c:	00870693          	addi	a3,a4,8 # 2008 <__stack_align+0x1ff8>
    80001710:	4318                	c.lw	a4,0(a4)
    80001712:	e436                	c.sdsp	a3,8(sp)
    80001714:	02074963          	blt	a4,zero,80001746 <_vfiprintf_r+0x1b0>
    80001718:	ce3a                	c.swsp	a4,28(sp)
    8000171a:	00044703          	lbu	a4,0(s0)
    8000171e:	02e00793          	addi	a5,zero,46
    80001722:	04f71063          	bne	a4,a5,80001762 <_vfiprintf_r+0x1cc>
    80001726:	00144703          	lbu	a4,1(s0)
    8000172a:	02a00793          	addi	a5,zero,42
    8000172e:	0af71263          	bne	a4,a5,800017d2 <_vfiprintf_r+0x23c>
    80001732:	67a2                	c.ldsp	a5,8(sp)
    80001734:	0409                	c.addi	s0,2
    80001736:	00878713          	addi	a4,a5,8
    8000173a:	439c                	c.lw	a5,0(a5)
    8000173c:	e43a                	c.sdsp	a4,8(sp)
    8000173e:	0207c163          	blt	a5,zero,80001760 <_vfiprintf_r+0x1ca>
    80001742:	ca3e                	c.swsp	a5,20(sp)
    80001744:	a839                	c.j	80001762 <_vfiprintf_r+0x1cc>
    80001746:	40e0073b          	subw	a4,zero,a4
    8000174a:	0027e793          	ori	a5,a5,2
    8000174e:	ce3a                	c.swsp	a4,28(sp)
    80001750:	c83e                	c.swsp	a5,16(sp)
    80001752:	b7e1                	c.j	8000171a <_vfiprintf_r+0x184>
    80001754:	02f807bb          	mulw	a5,a6,a5
    80001758:	842a                	c.mv	s0,a0
    8000175a:	4685                	c.li	a3,1
    8000175c:	9fb9                	c.addw	a5,a4
    8000175e:	bf0d                	c.j	80001690 <_vfiprintf_r+0xfa>
    80001760:	ca56                	c.swsp	s5,20(sp)
    80001762:	00044583          	lbu	a1,0(s0)
    80001766:	460d                	c.li	a2,3
    80001768:	00001517          	auipc	a0,0x1
    8000176c:	2d850513          	addi	a0,a0,728 # 80002a40 <__sf_fake_stdout+0x40>
    80001770:	668000ef          	jal	ra,80001dd8 <memchr>
    80001774:	cd11                	c.beqz	a0,80001790 <_vfiprintf_r+0x1fa>
    80001776:	00001797          	auipc	a5,0x1
    8000177a:	2ca78793          	addi	a5,a5,714 # 80002a40 <__sf_fake_stdout+0x40>
    8000177e:	8d1d                	c.sub	a0,a5
    80001780:	04000793          	addi	a5,zero,64
    80001784:	00a7953b          	sllw	a0,a5,a0
    80001788:	47c2                	c.lwsp	a5,16(sp)
    8000178a:	0405                	c.addi	s0,1
    8000178c:	8d5d                	c.or	a0,a5
    8000178e:	c82a                	c.swsp	a0,16(sp)
    80001790:	00044583          	lbu	a1,0(s0)
    80001794:	4619                	c.li	a2,6
    80001796:	00001517          	auipc	a0,0x1
    8000179a:	2b250513          	addi	a0,a0,690 # 80002a48 <__sf_fake_stdout+0x48>
    8000179e:	00140913          	addi	s2,s0,1
    800017a2:	02b10423          	sb	a1,40(sp)
    800017a6:	632000ef          	jal	ra,80001dd8 <memchr>
    800017aa:	c541                	c.beqz	a0,80001832 <_vfiprintf_r+0x29c>
    800017ac:	000007b7          	lui	a5,0x0
    800017b0:	00078793          	addi	a5,a5,0 # 0 <__boot_hart>
    800017b4:	eba1                	c.bnez	a5,80001804 <_vfiprintf_r+0x26e>
    800017b6:	4742                	c.lwsp	a4,16(sp)
    800017b8:	67a2                	c.ldsp	a5,8(sp)
    800017ba:	10077713          	andi	a4,a4,256
    800017be:	c329                	c.beqz	a4,80001800 <_vfiprintf_r+0x26a>
    800017c0:	07bd                	c.addi	a5,15
    800017c2:	9bc1                	c.andi	a5,-16
    800017c4:	07c1                	c.addi	a5,16
    800017c6:	e43e                	c.sdsp	a5,8(sp)
    800017c8:	5792                	c.lwsp	a5,36(sp)
    800017ca:	014787bb          	addw	a5,a5,s4
    800017ce:	d23e                	c.swsp	a5,36(sp)
    800017d0:	bd25                	c.j	80001608 <_vfiprintf_r+0x72>
    800017d2:	0405                	c.addi	s0,1
    800017d4:	ca02                	c.swsp	zero,20(sp)
    800017d6:	4681                	c.li	a3,0
    800017d8:	4781                	c.li	a5,0
    800017da:	4625                	c.li	a2,9
    800017dc:	4829                	c.li	a6,10
    800017de:	00044703          	lbu	a4,0(s0)
    800017e2:	00140513          	addi	a0,s0,1
    800017e6:	fd07059b          	addiw	a1,a4,-48
    800017ea:	872e                	c.mv	a4,a1
    800017ec:	00b67463          	bgeu	a2,a1,800017f4 <_vfiprintf_r+0x25e>
    800017f0:	faa9                	c.bnez	a3,80001742 <_vfiprintf_r+0x1ac>
    800017f2:	bf85                	c.j	80001762 <_vfiprintf_r+0x1cc>
    800017f4:	02f807bb          	mulw	a5,a6,a5
    800017f8:	842a                	c.mv	s0,a0
    800017fa:	4685                	c.li	a3,1
    800017fc:	9fb9                	c.addw	a5,a4
    800017fe:	b7c5                	c.j	800017de <_vfiprintf_r+0x248>
    80001800:	07a1                	c.addi	a5,8
    80001802:	b7d1                	c.j	800017c6 <_vfiprintf_r+0x230>
    80001804:	0038                	c.addi4spn	a4,sp,8
    80001806:	00000697          	auipc	a3,0x0
    8000180a:	d2468693          	addi	a3,a3,-732 # 8000152a <__sfputs_r>
    8000180e:	8626                	c.mv	a2,s1
    80001810:	080c                	c.addi4spn	a1,sp,16
    80001812:	854e                	c.mv	a0,s3
    80001814:	00000097          	auipc	ra,0x0
    80001818:	000000e7          	jalr	ra,0(zero) # 0 <__boot_hart>
    8000181c:	8a2a                	c.mv	s4,a0
    8000181e:	fb5515e3          	bne	a0,s5,800017c8 <_vfiprintf_r+0x232>
    80001822:	0104d783          	lhu	a5,16(s1)
    80001826:	0407f793          	andi	a5,a5,64
    8000182a:	ea0796e3          	bne	a5,zero,800016d6 <_vfiprintf_r+0x140>
    8000182e:	5512                	c.lwsp	a0,36(sp)
    80001830:	b565                	c.j	800016d8 <_vfiprintf_r+0x142>
    80001832:	0038                	c.addi4spn	a4,sp,8
    80001834:	00000697          	auipc	a3,0x0
    80001838:	cf668693          	addi	a3,a3,-778 # 8000152a <__sfputs_r>
    8000183c:	8626                	c.mv	a2,s1
    8000183e:	080c                	c.addi4spn	a1,sp,16
    80001840:	854e                	c.mv	a0,s3
    80001842:	778000ef          	jal	ra,80001fba <_printf_i>
    80001846:	bfd9                	c.j	8000181c <_vfiprintf_r+0x286>

0000000080001848 <vfiprintf>:
    80001848:	86b2                	c.mv	a3,a2
    8000184a:	862e                	c.mv	a2,a1
    8000184c:	85aa                	c.mv	a1,a0
    8000184e:	00001517          	auipc	a0,0x1
    80001852:	3b253503          	ld	a0,946(a0) # 80002c00 <_impure_ptr>
    80001856:	b381                	c.j	80001596 <_vfiprintf_r>

0000000080001858 <cleanup_glue>:
    80001858:	1101                	c.addi	sp,-32
    8000185a:	e822                	c.sdsp	s0,16(sp)
    8000185c:	842e                	c.mv	s0,a1
    8000185e:	618c                	c.ld	a1,0(a1)
    80001860:	e426                	c.sdsp	s1,8(sp)
    80001862:	ec06                	c.sdsp	ra,24(sp)
    80001864:	84aa                	c.mv	s1,a0
    80001866:	c199                	c.beqz	a1,8000186c <cleanup_glue+0x14>
    80001868:	ff1ff0ef          	jal	ra,80001858 <cleanup_glue>
    8000186c:	85a2                	c.mv	a1,s0
    8000186e:	6442                	c.ldsp	s0,16(sp)
    80001870:	60e2                	c.ldsp	ra,24(sp)
    80001872:	8526                	c.mv	a0,s1
    80001874:	64a2                	c.ldsp	s1,8(sp)
    80001876:	6105                	c.addi16sp	sp,32
    80001878:	8e0ff06f          	jal	zero,80000958 <_free_r>

000000008000187c <_reclaim_reent>:
    8000187c:	00001797          	auipc	a5,0x1
    80001880:	3847b783          	ld	a5,900(a5) # 80002c00 <_impure_ptr>
    80001884:	0ca78863          	beq	a5,a0,80001954 <_reclaim_reent+0xd8>
    80001888:	613c                	c.ld	a5,64(a0)
    8000188a:	7179                	c.addi16sp	sp,-48
    8000188c:	f022                	c.sdsp	s0,32(sp)
    8000188e:	f406                	c.sdsp	ra,40(sp)
    80001890:	ec26                	c.sdsp	s1,24(sp)
    80001892:	e84a                	c.sdsp	s2,16(sp)
    80001894:	e44e                	c.sdsp	s3,8(sp)
    80001896:	842a                	c.mv	s0,a0
    80001898:	cb8d                	c.beqz	a5,800018ca <_reclaim_reent+0x4e>
    8000189a:	6f9c                	c.ld	a5,24(a5)
    8000189c:	c38d                	c.beqz	a5,800018be <_reclaim_reent+0x42>
    8000189e:	4481                	c.li	s1,0
    800018a0:	20000913          	addi	s2,zero,512
    800018a4:	603c                	c.ld	a5,64(s0)
    800018a6:	6f9c                	c.ld	a5,24(a5)
    800018a8:	97a6                	c.add	a5,s1
    800018aa:	638c                	c.ld	a1,0(a5)
    800018ac:	e5d1                	c.bnez	a1,80001938 <_reclaim_reent+0xbc>
    800018ae:	04a1                	c.addi	s1,8
    800018b0:	ff249ae3          	bne	s1,s2,800018a4 <_reclaim_reent+0x28>
    800018b4:	603c                	c.ld	a5,64(s0)
    800018b6:	8522                	c.mv	a0,s0
    800018b8:	6f8c                	c.ld	a1,24(a5)
    800018ba:	89eff0ef          	jal	ra,80000958 <_free_r>
    800018be:	603c                	c.ld	a5,64(s0)
    800018c0:	638c                	c.ld	a1,0(a5)
    800018c2:	c581                	c.beqz	a1,800018ca <_reclaim_reent+0x4e>
    800018c4:	8522                	c.mv	a0,s0
    800018c6:	892ff0ef          	jal	ra,80000958 <_free_r>
    800018ca:	740c                	c.ld	a1,40(s0)
    800018cc:	c581                	c.beqz	a1,800018d4 <_reclaim_reent+0x58>
    800018ce:	8522                	c.mv	a0,s0
    800018d0:	888ff0ef          	jal	ra,80000958 <_free_r>
    800018d4:	602c                	c.ld	a1,64(s0)
    800018d6:	c581                	c.beqz	a1,800018de <_reclaim_reent+0x62>
    800018d8:	8522                	c.mv	a0,s0
    800018da:	87eff0ef          	jal	ra,80000958 <_free_r>
    800018de:	702c                	c.ld	a1,96(s0)
    800018e0:	c581                	c.beqz	a1,800018e8 <_reclaim_reent+0x6c>
    800018e2:	8522                	c.mv	a0,s0
    800018e4:	874ff0ef          	jal	ra,80000958 <_free_r>
    800018e8:	742c                	c.ld	a1,104(s0)
    800018ea:	c581                	c.beqz	a1,800018f2 <_reclaim_reent+0x76>
    800018ec:	8522                	c.mv	a0,s0
    800018ee:	86aff0ef          	jal	ra,80000958 <_free_r>
    800018f2:	782c                	c.ld	a1,112(s0)
    800018f4:	c581                	c.beqz	a1,800018fc <_reclaim_reent+0x80>
    800018f6:	8522                	c.mv	a0,s0
    800018f8:	860ff0ef          	jal	ra,80000958 <_free_r>
    800018fc:	744c                	c.ld	a1,168(s0)
    800018fe:	c581                	c.beqz	a1,80001906 <_reclaim_reent+0x8a>
    80001900:	8522                	c.mv	a0,s0
    80001902:	856ff0ef          	jal	ra,80000958 <_free_r>
    80001906:	704c                	c.ld	a1,160(s0)
    80001908:	c581                	c.beqz	a1,80001910 <_reclaim_reent+0x94>
    8000190a:	8522                	c.mv	a0,s0
    8000190c:	84cff0ef          	jal	ra,80000958 <_free_r>
    80001910:	6c2c                	c.ld	a1,88(s0)
    80001912:	c581                	c.beqz	a1,8000191a <_reclaim_reent+0x9e>
    80001914:	8522                	c.mv	a0,s0
    80001916:	842ff0ef          	jal	ra,80000958 <_free_r>
    8000191a:	581c                	c.lw	a5,48(s0)
    8000191c:	c78d                	c.beqz	a5,80001946 <_reclaim_reent+0xca>
    8000191e:	643c                	c.ld	a5,72(s0)
    80001920:	8522                	c.mv	a0,s0
    80001922:	9782                	c.jalr	a5
    80001924:	604c                	c.ld	a1,128(s0)
    80001926:	c185                	c.beqz	a1,80001946 <_reclaim_reent+0xca>
    80001928:	8522                	c.mv	a0,s0
    8000192a:	7402                	c.ldsp	s0,32(sp)
    8000192c:	70a2                	c.ldsp	ra,40(sp)
    8000192e:	64e2                	c.ldsp	s1,24(sp)
    80001930:	6942                	c.ldsp	s2,16(sp)
    80001932:	69a2                	c.ldsp	s3,8(sp)
    80001934:	6145                	c.addi16sp	sp,48
    80001936:	b70d                	c.j	80001858 <cleanup_glue>
    80001938:	0005b983          	ld	s3,0(a1)
    8000193c:	8522                	c.mv	a0,s0
    8000193e:	81aff0ef          	jal	ra,80000958 <_free_r>
    80001942:	85ce                	c.mv	a1,s3
    80001944:	b7a5                	c.j	800018ac <_reclaim_reent+0x30>
    80001946:	70a2                	c.ldsp	ra,40(sp)
    80001948:	7402                	c.ldsp	s0,32(sp)
    8000194a:	64e2                	c.ldsp	s1,24(sp)
    8000194c:	6942                	c.ldsp	s2,16(sp)
    8000194e:	69a2                	c.ldsp	s3,8(sp)
    80001950:	6145                	c.addi16sp	sp,48
    80001952:	8082                	c.jr	ra
    80001954:	8082                	c.jr	ra

0000000080001956 <__sread>:
    80001956:	1141                	c.addi	sp,-16
    80001958:	e022                	c.sdsp	s0,0(sp)
    8000195a:	842e                	c.mv	s0,a1
    8000195c:	01259583          	lh	a1,18(a1)
    80001960:	e406                	c.sdsp	ra,8(sp)
    80001962:	0eb000ef          	jal	ra,8000224c <_read_r>
    80001966:	00054963          	blt	a0,zero,80001978 <__sread+0x22>
    8000196a:	6c5c                	c.ld	a5,152(s0)
    8000196c:	97aa                	c.add	a5,a0
    8000196e:	ec5c                	c.sd	a5,152(s0)
    80001970:	60a2                	c.ldsp	ra,8(sp)
    80001972:	6402                	c.ldsp	s0,0(sp)
    80001974:	0141                	c.addi	sp,16
    80001976:	8082                	c.jr	ra
    80001978:	01045783          	lhu	a5,16(s0)
    8000197c:	777d                	c.lui	a4,0xfffff
    8000197e:	177d                	c.addi	a4,-1
    80001980:	8ff9                	c.and	a5,a4
    80001982:	00f41823          	sh	a5,16(s0)
    80001986:	b7ed                	c.j	80001970 <__sread+0x1a>

0000000080001988 <__seofread>:
    80001988:	4501                	c.li	a0,0
    8000198a:	8082                	c.jr	ra

000000008000198c <__swrite>:
    8000198c:	0105d783          	lhu	a5,16(a1)
    80001990:	7179                	c.addi16sp	sp,-48
    80001992:	f022                	c.sdsp	s0,32(sp)
    80001994:	ec26                	c.sdsp	s1,24(sp)
    80001996:	e84a                	c.sdsp	s2,16(sp)
    80001998:	e44e                	c.sdsp	s3,8(sp)
    8000199a:	f406                	c.sdsp	ra,40(sp)
    8000199c:	1007f793          	andi	a5,a5,256
    800019a0:	84aa                	c.mv	s1,a0
    800019a2:	842e                	c.mv	s0,a1
    800019a4:	8932                	c.mv	s2,a2
    800019a6:	89b6                	c.mv	s3,a3
    800019a8:	c799                	c.beqz	a5,800019b6 <__swrite+0x2a>
    800019aa:	01259583          	lh	a1,18(a1)
    800019ae:	4689                	c.li	a3,2
    800019b0:	4601                	c.li	a2,0
    800019b2:	3fa000ef          	jal	ra,80001dac <_lseek_r>
    800019b6:	01045783          	lhu	a5,16(s0)
    800019ba:	777d                	c.lui	a4,0xfffff
    800019bc:	177d                	c.addi	a4,-1
    800019be:	8ff9                	c.and	a5,a4
    800019c0:	01241583          	lh	a1,18(s0)
    800019c4:	00f41823          	sh	a5,16(s0)
    800019c8:	7402                	c.ldsp	s0,32(sp)
    800019ca:	70a2                	c.ldsp	ra,40(sp)
    800019cc:	86ce                	c.mv	a3,s3
    800019ce:	864a                	c.mv	a2,s2
    800019d0:	69a2                	c.ldsp	s3,8(sp)
    800019d2:	6942                	c.ldsp	s2,16(sp)
    800019d4:	8526                	c.mv	a0,s1
    800019d6:	64e2                	c.ldsp	s1,24(sp)
    800019d8:	6145                	c.addi16sp	sp,48
    800019da:	a081                	c.j	80001a1a <_write_r>

00000000800019dc <__sseek>:
    800019dc:	1141                	c.addi	sp,-16
    800019de:	e022                	c.sdsp	s0,0(sp)
    800019e0:	842e                	c.mv	s0,a1
    800019e2:	01259583          	lh	a1,18(a1)
    800019e6:	e406                	c.sdsp	ra,8(sp)
    800019e8:	3c4000ef          	jal	ra,80001dac <_lseek_r>
    800019ec:	57fd                	c.li	a5,-1
    800019ee:	01045703          	lhu	a4,16(s0)
    800019f2:	00f51b63          	bne	a0,a5,80001a08 <__sseek+0x2c>
    800019f6:	77fd                	c.lui	a5,0xfffff
    800019f8:	17fd                	c.addi	a5,-1
    800019fa:	8ff9                	c.and	a5,a4
    800019fc:	00f41823          	sh	a5,16(s0)
    80001a00:	60a2                	c.ldsp	ra,8(sp)
    80001a02:	6402                	c.ldsp	s0,0(sp)
    80001a04:	0141                	c.addi	sp,16
    80001a06:	8082                	c.jr	ra
    80001a08:	6785                	c.lui	a5,0x1
    80001a0a:	8fd9                	c.or	a5,a4
    80001a0c:	00f41823          	sh	a5,16(s0)
    80001a10:	ec48                	c.sd	a0,152(s0)
    80001a12:	b7fd                	c.j	80001a00 <__sseek+0x24>

0000000080001a14 <__sclose>:
    80001a14:	01259583          	lh	a1,18(a1)
    80001a18:	a03d                	c.j	80001a46 <_close_r>

0000000080001a1a <_write_r>:
    80001a1a:	1141                	c.addi	sp,-16
    80001a1c:	e022                	c.sdsp	s0,0(sp)
    80001a1e:	842a                	c.mv	s0,a0
    80001a20:	852e                	c.mv	a0,a1
    80001a22:	85b2                	c.mv	a1,a2
    80001a24:	8636                	c.mv	a2,a3
    80001a26:	9601a823          	sw	zero,-1680(gp) # 80002d70 <errno>
    80001a2a:	e406                	c.sdsp	ra,8(sp)
    80001a2c:	125000ef          	jal	ra,80002350 <_write>
    80001a30:	57fd                	c.li	a5,-1
    80001a32:	00f51663          	bne	a0,a5,80001a3e <_write_r+0x24>
    80001a36:	9701a783          	lw	a5,-1680(gp) # 80002d70 <errno>
    80001a3a:	c391                	c.beqz	a5,80001a3e <_write_r+0x24>
    80001a3c:	c01c                	c.sw	a5,0(s0)
    80001a3e:	60a2                	c.ldsp	ra,8(sp)
    80001a40:	6402                	c.ldsp	s0,0(sp)
    80001a42:	0141                	c.addi	sp,16
    80001a44:	8082                	c.jr	ra

0000000080001a46 <_close_r>:
    80001a46:	1141                	c.addi	sp,-16
    80001a48:	e022                	c.sdsp	s0,0(sp)
    80001a4a:	842a                	c.mv	s0,a0
    80001a4c:	852e                	c.mv	a0,a1
    80001a4e:	9601a823          	sw	zero,-1680(gp) # 80002d70 <errno>
    80001a52:	e406                	c.sdsp	ra,8(sp)
    80001a54:	045000ef          	jal	ra,80002298 <_close>
    80001a58:	57fd                	c.li	a5,-1
    80001a5a:	00f51663          	bne	a0,a5,80001a66 <_close_r+0x20>
    80001a5e:	9701a783          	lw	a5,-1680(gp) # 80002d70 <errno>
    80001a62:	c391                	c.beqz	a5,80001a66 <_close_r+0x20>
    80001a64:	c01c                	c.sw	a5,0(s0)
    80001a66:	60a2                	c.ldsp	ra,8(sp)
    80001a68:	6402                	c.ldsp	s0,0(sp)
    80001a6a:	0141                	c.addi	sp,16
    80001a6c:	8082                	c.jr	ra

0000000080001a6e <_fstat_r>:
    80001a6e:	1141                	c.addi	sp,-16
    80001a70:	e022                	c.sdsp	s0,0(sp)
    80001a72:	842a                	c.mv	s0,a0
    80001a74:	852e                	c.mv	a0,a1
    80001a76:	85b2                	c.mv	a1,a2
    80001a78:	9601a823          	sw	zero,-1680(gp) # 80002d70 <errno>
    80001a7c:	e406                	c.sdsp	ra,8(sp)
    80001a7e:	051000ef          	jal	ra,800022ce <_fstat>
    80001a82:	57fd                	c.li	a5,-1
    80001a84:	00f51663          	bne	a0,a5,80001a90 <_fstat_r+0x22>
    80001a88:	9701a783          	lw	a5,-1680(gp) # 80002d70 <errno>
    80001a8c:	c391                	c.beqz	a5,80001a90 <_fstat_r+0x22>
    80001a8e:	c01c                	c.sw	a5,0(s0)
    80001a90:	60a2                	c.ldsp	ra,8(sp)
    80001a92:	6402                	c.ldsp	s0,0(sp)
    80001a94:	0141                	c.addi	sp,16
    80001a96:	8082                	c.jr	ra

0000000080001a98 <__sfvwrite_r>:
    80001a98:	6a1c                	c.ld	a5,16(a2)
    80001a9a:	e781                	c.bnez	a5,80001aa2 <__sfvwrite_r+0xa>
    80001a9c:	4781                	c.li	a5,0
    80001a9e:	853e                	c.mv	a0,a5
    80001aa0:	8082                	c.jr	ra
    80001aa2:	0105d783          	lhu	a5,16(a1)
    80001aa6:	7119                	c.addi16sp	sp,-128
    80001aa8:	f8a2                	c.sdsp	s0,112(sp)
    80001aaa:	f0ca                	c.sdsp	s2,96(sp)
    80001aac:	e8d2                	c.sdsp	s4,80(sp)
    80001aae:	fc86                	c.sdsp	ra,120(sp)
    80001ab0:	f4a6                	c.sdsp	s1,104(sp)
    80001ab2:	ecce                	c.sdsp	s3,88(sp)
    80001ab4:	e4d6                	c.sdsp	s5,72(sp)
    80001ab6:	e0da                	c.sdsp	s6,64(sp)
    80001ab8:	fc5e                	c.sdsp	s7,56(sp)
    80001aba:	f862                	c.sdsp	s8,48(sp)
    80001abc:	f466                	c.sdsp	s9,40(sp)
    80001abe:	f06a                	c.sdsp	s10,32(sp)
    80001ac0:	ec6e                	c.sdsp	s11,24(sp)
    80001ac2:	8ba1                	c.andi	a5,8
    80001ac4:	892a                	c.mv	s2,a0
    80001ac6:	842e                	c.mv	s0,a1
    80001ac8:	8a32                	c.mv	s4,a2
    80001aca:	cfd1                	c.beqz	a5,80001b66 <__sfvwrite_r+0xce>
    80001acc:	6d9c                	c.ld	a5,24(a1)
    80001ace:	cfc1                	c.beqz	a5,80001b66 <__sfvwrite_r+0xce>
    80001ad0:	01045783          	lhu	a5,16(s0)
    80001ad4:	000a3983          	ld	s3,0(s4)
    80001ad8:	0027f713          	andi	a4,a5,2
    80001adc:	0e071863          	bne	a4,zero,80001bcc <__sfvwrite_r+0x134>
    80001ae0:	8b85                	c.andi	a5,1
    80001ae2:	4a81                	c.li	s5,0
    80001ae4:	16078463          	beq	a5,zero,80001c4c <__sfvwrite_r+0x1b4>
    80001ae8:	4501                	c.li	a0,0
    80001aea:	4b81                	c.li	s7,0
    80001aec:	4b01                	c.li	s6,0
    80001aee:	240b0963          	beq	s6,zero,80001d40 <__sfvwrite_r+0x2a8>
    80001af2:	e919                	c.bnez	a0,80001b08 <__sfvwrite_r+0x70>
    80001af4:	865a                	c.mv	a2,s6
    80001af6:	45a9                	c.li	a1,10
    80001af8:	855e                	c.mv	a0,s7
    80001afa:	2de000ef          	jal	ra,80001dd8 <memchr>
    80001afe:	24050863          	beq	a0,zero,80001d4e <__sfvwrite_r+0x2b6>
    80001b02:	0505                	c.addi	a0,1
    80001b04:	41750abb          	subw	s5,a0,s7
    80001b08:	8c56                	c.mv	s8,s5
    80001b0a:	015b7363          	bgeu	s6,s5,80001b10 <__sfvwrite_r+0x78>
    80001b0e:	8c5a                	c.mv	s8,s6
    80001b10:	6008                	c.ld	a0,0(s0)
    80001b12:	6c1c                	c.ld	a5,24(s0)
    80001b14:	5014                	c.lw	a3,32(s0)
    80001b16:	22a7ff63          	bgeu	a5,a0,80001d54 <__sfvwrite_r+0x2bc>
    80001b1a:	4444                	c.lw	s1,12(s0)
    80001b1c:	9cb5                	c.addw	s1,a3
    80001b1e:	2384db63          	bge	s1,s8,80001d54 <__sfvwrite_r+0x2bc>
    80001b22:	85de                	c.mv	a1,s7
    80001b24:	8626                	c.mv	a2,s1
    80001b26:	2e2000ef          	jal	ra,80001e08 <memmove>
    80001b2a:	601c                	c.ld	a5,0(s0)
    80001b2c:	85a2                	c.mv	a1,s0
    80001b2e:	854a                	c.mv	a0,s2
    80001b30:	97a6                	c.add	a5,s1
    80001b32:	e01c                	c.sd	a5,0(s0)
    80001b34:	d52ff0ef          	jal	ra,80001086 <_fflush_r>
    80001b38:	10051263          	bne	a0,zero,80001c3c <__sfvwrite_r+0x1a4>
    80001b3c:	409a8abb          	subw	s5,s5,s1
    80001b40:	4505                	c.li	a0,1
    80001b42:	000a9763          	bne	s5,zero,80001b50 <__sfvwrite_r+0xb8>
    80001b46:	85a2                	c.mv	a1,s0
    80001b48:	854a                	c.mv	a0,s2
    80001b4a:	d3cff0ef          	jal	ra,80001086 <_fflush_r>
    80001b4e:	e57d                	c.bnez	a0,80001c3c <__sfvwrite_r+0x1a4>
    80001b50:	010a3603          	ld	a2,16(s4)
    80001b54:	9ba6                	c.add	s7,s1
    80001b56:	409b0b33          	sub	s6,s6,s1
    80001b5a:	409604b3          	sub	s1,a2,s1
    80001b5e:	009a3823          	sd	s1,16(s4)
    80001b62:	f4d1                	c.bnez	s1,80001aee <__sfvwrite_r+0x56>
    80001b64:	a099                	c.j	80001baa <__sfvwrite_r+0x112>
    80001b66:	85a2                	c.mv	a1,s0
    80001b68:	854a                	c.mv	a0,s2
    80001b6a:	aceff0ef          	jal	ra,80000e38 <__swsetup_r>
    80001b6e:	57fd                	c.li	a5,-1
    80001b70:	d125                	c.beqz	a0,80001ad0 <__sfvwrite_r+0x38>
    80001b72:	a82d                	c.j	80001bac <__sfvwrite_r+0x114>
    80001b74:	0009ba83          	ld	s5,0(s3)
    80001b78:	0089b483          	ld	s1,8(s3)
    80001b7c:	09c1                	c.addi	s3,16
    80001b7e:	d8fd                	c.beqz	s1,80001b74 <__sfvwrite_r+0xdc>
    80001b80:	86a6                	c.mv	a3,s1
    80001b82:	009b7363          	bgeu	s6,s1,80001b88 <__sfvwrite_r+0xf0>
    80001b86:	86da                	c.mv	a3,s6
    80001b88:	643c                	c.ld	a5,72(s0)
    80001b8a:	7c0c                	c.ld	a1,56(s0)
    80001b8c:	2681                	c.addiw	a3,0
    80001b8e:	8656                	c.mv	a2,s5
    80001b90:	854a                	c.mv	a0,s2
    80001b92:	9782                	c.jalr	a5
    80001b94:	0aa05463          	bge	zero,a0,80001c3c <__sfvwrite_r+0x1a4>
    80001b98:	010a3783          	ld	a5,16(s4)
    80001b9c:	9aaa                	c.add	s5,a0
    80001b9e:	8c89                	c.sub	s1,a0
    80001ba0:	40a78533          	sub	a0,a5,a0
    80001ba4:	00aa3823          	sd	a0,16(s4)
    80001ba8:	f979                	c.bnez	a0,80001b7e <__sfvwrite_r+0xe6>
    80001baa:	4781                	c.li	a5,0
    80001bac:	70e6                	c.ldsp	ra,120(sp)
    80001bae:	7446                	c.ldsp	s0,112(sp)
    80001bb0:	74a6                	c.ldsp	s1,104(sp)
    80001bb2:	7906                	c.ldsp	s2,96(sp)
    80001bb4:	69e6                	c.ldsp	s3,88(sp)
    80001bb6:	6a46                	c.ldsp	s4,80(sp)
    80001bb8:	6aa6                	c.ldsp	s5,72(sp)
    80001bba:	6b06                	c.ldsp	s6,64(sp)
    80001bbc:	7be2                	c.ldsp	s7,56(sp)
    80001bbe:	7c42                	c.ldsp	s8,48(sp)
    80001bc0:	7ca2                	c.ldsp	s9,40(sp)
    80001bc2:	7d02                	c.ldsp	s10,32(sp)
    80001bc4:	6de2                	c.ldsp	s11,24(sp)
    80001bc6:	853e                	c.mv	a0,a5
    80001bc8:	6109                	c.addi16sp	sp,128
    80001bca:	8082                	c.jr	ra
    80001bcc:	80000b37          	lui	s6,0x80000
    80001bd0:	4a81                	c.li	s5,0
    80001bd2:	4481                	c.li	s1,0
    80001bd4:	c00b4b13          	xori	s6,s6,-1024
    80001bd8:	b75d                	c.j	80001b7e <__sfvwrite_r+0xe6>
    80001bda:	0009ba83          	ld	s5,0(s3)
    80001bde:	0089bd03          	ld	s10,8(s3)
    80001be2:	09c1                	c.addi	s3,16
    80001be4:	4444                	c.lw	s1,12(s0)
    80001be6:	8626                	c.mv	a2,s1
    80001be8:	fe0d09e3          	beq	s10,zero,80001bda <__sfvwrite_r+0x142>
    80001bec:	01045703          	lhu	a4,16(s0)
    80001bf0:	6008                	c.ld	a0,0(s0)
    80001bf2:	20077793          	andi	a5,a4,512
    80001bf6:	c7ed                	c.beqz	a5,80001ce0 <__sfvwrite_r+0x248>
    80001bf8:	089d6863          	bltu	s10,s1,80001c88 <__sfvwrite_r+0x1f0>
    80001bfc:	48077793          	andi	a5,a4,1152
    80001c00:	c7c1                	c.beqz	a5,80001c88 <__sfvwrite_r+0x1f0>
    80001c02:	501c                	c.lw	a5,32(s0)
    80001c04:	6c0c                	c.ld	a1,24(s0)
    80001c06:	02fc07bb          	mulw	a5,s8,a5
    80001c0a:	8d0d                	c.sub	a0,a1
    80001c0c:	00050d9b          	addiw	s11,a0,0
    80001c10:	001d8693          	addi	a3,s11,1
    80001c14:	96ea                	c.add	a3,s10
    80001c16:	0397cbbb          	divw	s7,a5,s9
    80001c1a:	00dbf563          	bgeu	s7,a3,80001c24 <__sfvwrite_r+0x18c>
    80001c1e:	2505                	c.addiw	a0,1
    80001c20:	01a50bbb          	addw	s7,a0,s10
    80001c24:	40077713          	andi	a4,a4,1024
    80001c28:	cb59                	c.beqz	a4,80001cbe <__sfvwrite_r+0x226>
    80001c2a:	85de                	c.mv	a1,s7
    80001c2c:	854a                	c.mv	a0,s2
    80001c2e:	dd1fe0ef          	jal	ra,800009fe <_malloc_r>
    80001c32:	84aa                	c.mv	s1,a0
    80001c34:	e505                	c.bnez	a0,80001c5c <__sfvwrite_r+0x1c4>
    80001c36:	47b1                	c.li	a5,12
    80001c38:	00f92023          	sw	a5,0(s2)
    80001c3c:	01045783          	lhu	a5,16(s0)
    80001c40:	0407e793          	ori	a5,a5,64
    80001c44:	00f41823          	sh	a5,16(s0)
    80001c48:	57fd                	c.li	a5,-1
    80001c4a:	b78d                	c.j	80001bac <__sfvwrite_r+0x114>
    80001c4c:	80000b37          	lui	s6,0x80000
    80001c50:	4d01                	c.li	s10,0
    80001c52:	fffb4b13          	xori	s6,s6,-1
    80001c56:	4c0d                	c.li	s8,3
    80001c58:	4c89                	c.li	s9,2
    80001c5a:	b769                	c.j	80001be4 <__sfvwrite_r+0x14c>
    80001c5c:	6c0c                	c.ld	a1,24(s0)
    80001c5e:	866e                	c.mv	a2,s11
    80001c60:	192000ef          	jal	ra,80001df2 <memcpy>
    80001c64:	01045703          	lhu	a4,16(s0)
    80001c68:	b7f77713          	andi	a4,a4,-1153
    80001c6c:	08076713          	ori	a4,a4,128
    80001c70:	00e41823          	sh	a4,16(s0)
    80001c74:	ec04                	c.sd	s1,24(s0)
    80001c76:	94ee                	c.add	s1,s11
    80001c78:	41bb8dbb          	subw	s11,s7,s11
    80001c7c:	e004                	c.sd	s1,0(s0)
    80001c7e:	03742023          	sw	s7,32(s0)
    80001c82:	866a                	c.mv	a2,s10
    80001c84:	01b42623          	sw	s11,12(s0)
    80001c88:	84ea                	c.mv	s1,s10
    80001c8a:	00cd7363          	bgeu	s10,a2,80001c90 <__sfvwrite_r+0x1f8>
    80001c8e:	866a                	c.mv	a2,s10
    80001c90:	6008                	c.ld	a0,0(s0)
    80001c92:	85d6                	c.mv	a1,s5
    80001c94:	e432                	c.sdsp	a2,8(sp)
    80001c96:	172000ef          	jal	ra,80001e08 <memmove>
    80001c9a:	445c                	c.lw	a5,12(s0)
    80001c9c:	6622                	c.ldsp	a2,8(sp)
    80001c9e:	9f91                	c.subw	a5,a2
    80001ca0:	c45c                	c.sw	a5,12(s0)
    80001ca2:	601c                	c.ld	a5,0(s0)
    80001ca4:	963e                	c.add	a2,a5
    80001ca6:	e010                	c.sd	a2,0(s0)
    80001ca8:	010a3503          	ld	a0,16(s4)
    80001cac:	9aa6                	c.add	s5,s1
    80001cae:	409d0d33          	sub	s10,s10,s1
    80001cb2:	409504b3          	sub	s1,a0,s1
    80001cb6:	009a3823          	sd	s1,16(s4)
    80001cba:	f48d                	c.bnez	s1,80001be4 <__sfvwrite_r+0x14c>
    80001cbc:	b5fd                	c.j	80001baa <__sfvwrite_r+0x112>
    80001cbe:	865e                	c.mv	a2,s7
    80001cc0:	854a                	c.mv	a0,s2
    80001cc2:	16c000ef          	jal	ra,80001e2e <_realloc_r>
    80001cc6:	84aa                	c.mv	s1,a0
    80001cc8:	f555                	c.bnez	a0,80001c74 <__sfvwrite_r+0x1dc>
    80001cca:	6c0c                	c.ld	a1,24(s0)
    80001ccc:	854a                	c.mv	a0,s2
    80001cce:	c8bfe0ef          	jal	ra,80000958 <_free_r>
    80001cd2:	01045783          	lhu	a5,16(s0)
    80001cd6:	f7f7f793          	andi	a5,a5,-129
    80001cda:	00f41823          	sh	a5,16(s0)
    80001cde:	bfa1                	c.j	80001c36 <__sfvwrite_r+0x19e>
    80001ce0:	6c1c                	c.ld	a5,24(s0)
    80001ce2:	00a7e563          	bltu	a5,a0,80001cec <__sfvwrite_r+0x254>
    80001ce6:	5014                	c.lw	a3,32(s0)
    80001ce8:	02dd7763          	bgeu	s10,a3,80001d16 <__sfvwrite_r+0x27e>
    80001cec:	009d7363          	bgeu	s10,s1,80001cf2 <__sfvwrite_r+0x25a>
    80001cf0:	84ea                	c.mv	s1,s10
    80001cf2:	8626                	c.mv	a2,s1
    80001cf4:	85d6                	c.mv	a1,s5
    80001cf6:	112000ef          	jal	ra,80001e08 <memmove>
    80001cfa:	445c                	c.lw	a5,12(s0)
    80001cfc:	4097873b          	subw	a4,a5,s1
    80001d00:	601c                	c.ld	a5,0(s0)
    80001d02:	c458                	c.sw	a4,12(s0)
    80001d04:	97a6                	c.add	a5,s1
    80001d06:	e01c                	c.sd	a5,0(s0)
    80001d08:	f345                	c.bnez	a4,80001ca8 <__sfvwrite_r+0x210>
    80001d0a:	85a2                	c.mv	a1,s0
    80001d0c:	854a                	c.mv	a0,s2
    80001d0e:	b78ff0ef          	jal	ra,80001086 <_fflush_r>
    80001d12:	d959                	c.beqz	a0,80001ca8 <__sfvwrite_r+0x210>
    80001d14:	b725                	c.j	80001c3c <__sfvwrite_r+0x1a4>
    80001d16:	80000737          	lui	a4,0x80000
    80001d1a:	ffe74713          	xori	a4,a4,-2
    80001d1e:	87da                	c.mv	a5,s6
    80001d20:	01a76363          	bltu	a4,s10,80001d26 <__sfvwrite_r+0x28e>
    80001d24:	87ea                	c.mv	a5,s10
    80001d26:	02d7c7bb          	divw	a5,a5,a3
    80001d2a:	6438                	c.ld	a4,72(s0)
    80001d2c:	7c0c                	c.ld	a1,56(s0)
    80001d2e:	8656                	c.mv	a2,s5
    80001d30:	854a                	c.mv	a0,s2
    80001d32:	02d786bb          	mulw	a3,a5,a3
    80001d36:	9702                	c.jalr	a4
    80001d38:	84aa                	c.mv	s1,a0
    80001d3a:	f6a047e3          	blt	zero,a0,80001ca8 <__sfvwrite_r+0x210>
    80001d3e:	bdfd                	c.j	80001c3c <__sfvwrite_r+0x1a4>
    80001d40:	0009bb83          	ld	s7,0(s3)
    80001d44:	0089bb03          	ld	s6,8(s3)
    80001d48:	4501                	c.li	a0,0
    80001d4a:	09c1                	c.addi	s3,16
    80001d4c:	b34d                	c.j	80001aee <__sfvwrite_r+0x56>
    80001d4e:	001b0a9b          	addiw	s5,s6,1
    80001d52:	bb5d                	c.j	80001b08 <__sfvwrite_r+0x70>
    80001d54:	00dc4b63          	blt	s8,a3,80001d6a <__sfvwrite_r+0x2d2>
    80001d58:	643c                	c.ld	a5,72(s0)
    80001d5a:	7c0c                	c.ld	a1,56(s0)
    80001d5c:	865e                	c.mv	a2,s7
    80001d5e:	854a                	c.mv	a0,s2
    80001d60:	9782                	c.jalr	a5
    80001d62:	84aa                	c.mv	s1,a0
    80001d64:	dca04ce3          	blt	zero,a0,80001b3c <__sfvwrite_r+0xa4>
    80001d68:	bdd1                	c.j	80001c3c <__sfvwrite_r+0x1a4>
    80001d6a:	8662                	c.mv	a2,s8
    80001d6c:	85de                	c.mv	a1,s7
    80001d6e:	09a000ef          	jal	ra,80001e08 <memmove>
    80001d72:	445c                	c.lw	a5,12(s0)
    80001d74:	84e2                	c.mv	s1,s8
    80001d76:	418787bb          	subw	a5,a5,s8
    80001d7a:	c45c                	c.sw	a5,12(s0)
    80001d7c:	601c                	c.ld	a5,0(s0)
    80001d7e:	97e2                	c.add	a5,s8
    80001d80:	e01c                	c.sd	a5,0(s0)
    80001d82:	bb6d                	c.j	80001b3c <__sfvwrite_r+0xa4>

0000000080001d84 <_isatty_r>:
    80001d84:	1141                	c.addi	sp,-16
    80001d86:	e022                	c.sdsp	s0,0(sp)
    80001d88:	842a                	c.mv	s0,a0
    80001d8a:	852e                	c.mv	a0,a1
    80001d8c:	9601a823          	sw	zero,-1680(gp) # 80002d70 <errno>
    80001d90:	e406                	c.sdsp	ra,8(sp)
    80001d92:	550000ef          	jal	ra,800022e2 <_isatty>
    80001d96:	57fd                	c.li	a5,-1
    80001d98:	00f51663          	bne	a0,a5,80001da4 <_isatty_r+0x20>
    80001d9c:	9701a783          	lw	a5,-1680(gp) # 80002d70 <errno>
    80001da0:	c391                	c.beqz	a5,80001da4 <_isatty_r+0x20>
    80001da2:	c01c                	c.sw	a5,0(s0)
    80001da4:	60a2                	c.ldsp	ra,8(sp)
    80001da6:	6402                	c.ldsp	s0,0(sp)
    80001da8:	0141                	c.addi	sp,16
    80001daa:	8082                	c.jr	ra

0000000080001dac <_lseek_r>:
    80001dac:	1141                	c.addi	sp,-16
    80001dae:	e022                	c.sdsp	s0,0(sp)
    80001db0:	842a                	c.mv	s0,a0
    80001db2:	852e                	c.mv	a0,a1
    80001db4:	85b2                	c.mv	a1,a2
    80001db6:	8636                	c.mv	a2,a3
    80001db8:	9601a823          	sw	zero,-1680(gp) # 80002d70 <errno>
    80001dbc:	e406                	c.sdsp	ra,8(sp)
    80001dbe:	52c000ef          	jal	ra,800022ea <_lseek>
    80001dc2:	57fd                	c.li	a5,-1
    80001dc4:	00f51663          	bne	a0,a5,80001dd0 <_lseek_r+0x24>
    80001dc8:	9701a783          	lw	a5,-1680(gp) # 80002d70 <errno>
    80001dcc:	c391                	c.beqz	a5,80001dd0 <_lseek_r+0x24>
    80001dce:	c01c                	c.sw	a5,0(s0)
    80001dd0:	60a2                	c.ldsp	ra,8(sp)
    80001dd2:	6402                	c.ldsp	s0,0(sp)
    80001dd4:	0141                	c.addi	sp,16
    80001dd6:	8082                	c.jr	ra

0000000080001dd8 <memchr>:
    80001dd8:	0ff5f593          	andi	a1,a1,255
    80001ddc:	962a                	c.add	a2,a0
    80001dde:	00c51463          	bne	a0,a2,80001de6 <memchr+0xe>
    80001de2:	4501                	c.li	a0,0
    80001de4:	8082                	c.jr	ra
    80001de6:	00054783          	lbu	a5,0(a0)
    80001dea:	feb78de3          	beq	a5,a1,80001de4 <memchr+0xc>
    80001dee:	0505                	c.addi	a0,1
    80001df0:	b7fd                	c.j	80001dde <memchr+0x6>

0000000080001df2 <memcpy>:
    80001df2:	832a                	c.mv	t1,a0
    80001df4:	ca09                	c.beqz	a2,80001e06 <memcpy+0x14>
    80001df6:	00058383          	lb	t2,0(a1)
    80001dfa:	00730023          	sb	t2,0(t1)
    80001dfe:	167d                	c.addi	a2,-1
    80001e00:	0305                	c.addi	t1,1
    80001e02:	0585                	c.addi	a1,1
    80001e04:	fa6d                	c.bnez	a2,80001df6 <memcpy+0x4>
    80001e06:	8082                	c.jr	ra

0000000080001e08 <memmove>:
    80001e08:	c215                	c.beqz	a2,80001e2c <memmove+0x24>
    80001e0a:	832a                	c.mv	t1,a0
    80001e0c:	4685                	c.li	a3,1
    80001e0e:	00b56763          	bltu	a0,a1,80001e1c <memmove+0x14>
    80001e12:	56fd                	c.li	a3,-1
    80001e14:	fff60713          	addi	a4,a2,-1
    80001e18:	933a                	c.add	t1,a4
    80001e1a:	95ba                	c.add	a1,a4
    80001e1c:	00058383          	lb	t2,0(a1)
    80001e20:	00730023          	sb	t2,0(t1)
    80001e24:	167d                	c.addi	a2,-1
    80001e26:	9336                	c.add	t1,a3
    80001e28:	95b6                	c.add	a1,a3
    80001e2a:	fa6d                	c.bnez	a2,80001e1c <memmove+0x14>
    80001e2c:	8082                	c.jr	ra

0000000080001e2e <_realloc_r>:
    80001e2e:	7179                	c.addi16sp	sp,-48
    80001e30:	f022                	c.sdsp	s0,32(sp)
    80001e32:	f406                	c.sdsp	ra,40(sp)
    80001e34:	ec26                	c.sdsp	s1,24(sp)
    80001e36:	e84a                	c.sdsp	s2,16(sp)
    80001e38:	e44e                	c.sdsp	s3,8(sp)
    80001e3a:	8432                	c.mv	s0,a2
    80001e3c:	e991                	c.bnez	a1,80001e50 <_realloc_r+0x22>
    80001e3e:	7402                	c.ldsp	s0,32(sp)
    80001e40:	70a2                	c.ldsp	ra,40(sp)
    80001e42:	64e2                	c.ldsp	s1,24(sp)
    80001e44:	6942                	c.ldsp	s2,16(sp)
    80001e46:	69a2                	c.ldsp	s3,8(sp)
    80001e48:	85b2                	c.mv	a1,a2
    80001e4a:	6145                	c.addi16sp	sp,48
    80001e4c:	bb3fe06f          	jal	zero,800009fe <_malloc_r>
    80001e50:	ee01                	c.bnez	a2,80001e68 <_realloc_r+0x3a>
    80001e52:	b07fe0ef          	jal	ra,80000958 <_free_r>
    80001e56:	4481                	c.li	s1,0
    80001e58:	70a2                	c.ldsp	ra,40(sp)
    80001e5a:	7402                	c.ldsp	s0,32(sp)
    80001e5c:	6942                	c.ldsp	s2,16(sp)
    80001e5e:	69a2                	c.ldsp	s3,8(sp)
    80001e60:	8526                	c.mv	a0,s1
    80001e62:	64e2                	c.ldsp	s1,24(sp)
    80001e64:	6145                	c.addi16sp	sp,48
    80001e66:	8082                	c.jr	ra
    80001e68:	892e                	c.mv	s2,a1
    80001e6a:	89aa                	c.mv	s3,a0
    80001e6c:	40c000ef          	jal	ra,80002278 <_malloc_usable_size_r>
    80001e70:	84ca                	c.mv	s1,s2
    80001e72:	fe8573e3          	bgeu	a0,s0,80001e58 <_realloc_r+0x2a>
    80001e76:	85a2                	c.mv	a1,s0
    80001e78:	854e                	c.mv	a0,s3
    80001e7a:	b85fe0ef          	jal	ra,800009fe <_malloc_r>
    80001e7e:	84aa                	c.mv	s1,a0
    80001e80:	dd61                	c.beqz	a0,80001e58 <_realloc_r+0x2a>
    80001e82:	85ca                	c.mv	a1,s2
    80001e84:	8622                	c.mv	a2,s0
    80001e86:	f6dff0ef          	jal	ra,80001df2 <memcpy>
    80001e8a:	85ca                	c.mv	a1,s2
    80001e8c:	854e                	c.mv	a0,s3
    80001e8e:	acbfe0ef          	jal	ra,80000958 <_free_r>
    80001e92:	b7d9                	c.j	80001e58 <_realloc_r+0x2a>

0000000080001e94 <_printf_common>:
    80001e94:	715d                	c.addi16sp	sp,-80
    80001e96:	499c                	c.lw	a5,16(a1)
    80001e98:	f052                	c.sdsp	s4,32(sp)
    80001e9a:	8a3a                	c.mv	s4,a4
    80001e9c:	4598                	c.lw	a4,8(a1)
    80001e9e:	e0a2                	c.sdsp	s0,64(sp)
    80001ea0:	f84a                	c.sdsp	s2,48(sp)
    80001ea2:	f44e                	c.sdsp	s3,40(sp)
    80001ea4:	ec56                	c.sdsp	s5,24(sp)
    80001ea6:	8932                	c.mv	s2,a2
    80001ea8:	8ab6                	c.mv	s5,a3
    80001eaa:	e486                	c.sdsp	ra,72(sp)
    80001eac:	fc26                	c.sdsp	s1,56(sp)
    80001eae:	e85a                	c.sdsp	s6,16(sp)
    80001eb0:	e45e                	c.sdsp	s7,8(sp)
    80001eb2:	0007861b          	addiw	a2,a5,0
    80001eb6:	0007069b          	addiw	a3,a4,0
    80001eba:	89aa                	c.mv	s3,a0
    80001ebc:	842e                	c.mv	s0,a1
    80001ebe:	00d65363          	bge	a2,a3,80001ec4 <_printf_common+0x30>
    80001ec2:	87ba                	c.mv	a5,a4
    80001ec4:	00f92023          	sw	a5,0(s2)
    80001ec8:	04344703          	lbu	a4,67(s0)
    80001ecc:	c701                	c.beqz	a4,80001ed4 <_printf_common+0x40>
    80001ece:	2785                	c.addiw	a5,1
    80001ed0:	00f92023          	sw	a5,0(s2)
    80001ed4:	401c                	c.lw	a5,0(s0)
    80001ed6:	0207f793          	andi	a5,a5,32
    80001eda:	c791                	c.beqz	a5,80001ee6 <_printf_common+0x52>
    80001edc:	00092783          	lw	a5,0(s2)
    80001ee0:	2789                	c.addiw	a5,2
    80001ee2:	00f92023          	sw	a5,0(s2)
    80001ee6:	4004                	c.lw	s1,0(s0)
    80001ee8:	8899                	c.andi	s1,6
    80001eea:	e891                	c.bnez	s1,80001efe <_printf_common+0x6a>
    80001eec:	01940b13          	addi	s6,s0,25
    80001ef0:	5bfd                	c.li	s7,-1
    80001ef2:	445c                	c.lw	a5,12(s0)
    80001ef4:	00092703          	lw	a4,0(s2)
    80001ef8:	9f99                	c.subw	a5,a4
    80001efa:	06f4c163          	blt	s1,a5,80001f5c <_printf_common+0xc8>
    80001efe:	04344783          	lbu	a5,67(s0)
    80001f02:	00f03733          	sltu	a4,zero,a5
    80001f06:	00f036b3          	sltu	a3,zero,a5
    80001f0a:	401c                	c.lw	a5,0(s0)
    80001f0c:	0207f793          	andi	a5,a5,32
    80001f10:	ebbd                	c.bnez	a5,80001f86 <_printf_common+0xf2>
    80001f12:	04340613          	addi	a2,s0,67
    80001f16:	85d6                	c.mv	a1,s5
    80001f18:	854e                	c.mv	a0,s3
    80001f1a:	9a02                	c.jalr	s4
    80001f1c:	57fd                	c.li	a5,-1
    80001f1e:	04f50663          	beq	a0,a5,80001f6a <_printf_common+0xd6>
    80001f22:	401c                	c.lw	a5,0(s0)
    80001f24:	4611                	c.li	a2,4
    80001f26:	4454                	c.lw	a3,12(s0)
    80001f28:	8b99                	c.andi	a5,6
    80001f2a:	00092703          	lw	a4,0(s2)
    80001f2e:	4481                	c.li	s1,0
    80001f30:	00c79963          	bne	a5,a2,80001f42 <_printf_common+0xae>
    80001f34:	40e684bb          	subw	s1,a3,a4
    80001f38:	02049793          	slli	a5,s1,0x20
    80001f3c:	0007d363          	bge	a5,zero,80001f42 <_printf_common+0xae>
    80001f40:	4481                	c.li	s1,0
    80001f42:	441c                	c.lw	a5,8(s0)
    80001f44:	4818                	c.lw	a4,16(s0)
    80001f46:	00f75463          	bge	a4,a5,80001f4e <_printf_common+0xba>
    80001f4a:	9f99                	c.subw	a5,a4
    80001f4c:	9cbd                	c.addw	s1,a5
    80001f4e:	4901                	c.li	s2,0
    80001f50:	0469                	c.addi	s0,26
    80001f52:	5b7d                	c.li	s6,-1
    80001f54:	05249a63          	bne	s1,s2,80001fa8 <_printf_common+0x114>
    80001f58:	4501                	c.li	a0,0
    80001f5a:	a809                	c.j	80001f6c <_printf_common+0xd8>
    80001f5c:	4685                	c.li	a3,1
    80001f5e:	865a                	c.mv	a2,s6
    80001f60:	85d6                	c.mv	a1,s5
    80001f62:	854e                	c.mv	a0,s3
    80001f64:	9a02                	c.jalr	s4
    80001f66:	01751e63          	bne	a0,s7,80001f82 <_printf_common+0xee>
    80001f6a:	557d                	c.li	a0,-1
    80001f6c:	60a6                	c.ldsp	ra,72(sp)
    80001f6e:	6406                	c.ldsp	s0,64(sp)
    80001f70:	74e2                	c.ldsp	s1,56(sp)
    80001f72:	7942                	c.ldsp	s2,48(sp)
    80001f74:	79a2                	c.ldsp	s3,40(sp)
    80001f76:	7a02                	c.ldsp	s4,32(sp)
    80001f78:	6ae2                	c.ldsp	s5,24(sp)
    80001f7a:	6b42                	c.ldsp	s6,16(sp)
    80001f7c:	6ba2                	c.ldsp	s7,8(sp)
    80001f7e:	6161                	c.addi16sp	sp,80
    80001f80:	8082                	c.jr	ra
    80001f82:	2485                	c.addiw	s1,1
    80001f84:	b7bd                	c.j	80001ef2 <_printf_common+0x5e>
    80001f86:	00d407b3          	add	a5,s0,a3
    80001f8a:	03000693          	addi	a3,zero,48
    80001f8e:	04d781a3          	sb	a3,67(a5) # 1043 <__stack_align+0x1033>
    80001f92:	0017061b          	addiw	a2,a4,1
    80001f96:	0027069b          	addiw	a3,a4,2
    80001f9a:	04544703          	lbu	a4,69(s0)
    80001f9e:	00c407b3          	add	a5,s0,a2
    80001fa2:	04e781a3          	sb	a4,67(a5)
    80001fa6:	b7b5                	c.j	80001f12 <_printf_common+0x7e>
    80001fa8:	4685                	c.li	a3,1
    80001faa:	8622                	c.mv	a2,s0
    80001fac:	85d6                	c.mv	a1,s5
    80001fae:	854e                	c.mv	a0,s3
    80001fb0:	9a02                	c.jalr	s4
    80001fb2:	fb650ce3          	beq	a0,s6,80001f6a <_printf_common+0xd6>
    80001fb6:	2905                	c.addiw	s2,1
    80001fb8:	bf71                	c.j	80001f54 <_printf_common+0xc0>

0000000080001fba <_printf_i>:
    80001fba:	715d                	c.addi16sp	sp,-80
    80001fbc:	e0a2                	c.sdsp	s0,64(sp)
    80001fbe:	f84a                	c.sdsp	s2,48(sp)
    80001fc0:	f44e                	c.sdsp	s3,40(sp)
    80001fc2:	f052                	c.sdsp	s4,32(sp)
    80001fc4:	e486                	c.sdsp	ra,72(sp)
    80001fc6:	fc26                	c.sdsp	s1,56(sp)
    80001fc8:	ec56                	c.sdsp	s5,24(sp)
    80001fca:	e85a                	c.sdsp	s6,16(sp)
    80001fcc:	842e                	c.mv	s0,a1
    80001fce:	8a36                	c.mv	s4,a3
    80001fd0:	04358693          	addi	a3,a1,67
    80001fd4:	0185c583          	lbu	a1,24(a1)
    80001fd8:	07800793          	addi	a5,zero,120
    80001fdc:	892a                	c.mv	s2,a0
    80001fde:	89b2                	c.mv	s3,a2
    80001fe0:	00b7ec63          	bltu	a5,a1,80001ff8 <_printf_i+0x3e>
    80001fe4:	06200793          	addi	a5,zero,98
    80001fe8:	00b7ed63          	bltu	a5,a1,80002002 <_printf_i+0x48>
    80001fec:	1c058863          	beq	a1,zero,800021bc <_printf_i+0x202>
    80001ff0:	05800793          	addi	a5,zero,88
    80001ff4:	14f58063          	beq	a1,a5,80002134 <_printf_i+0x17a>
    80001ff8:	04240493          	addi	s1,s0,66
    80001ffc:	04b40123          	sb	a1,66(s0)
    80002000:	a815                	c.j	80002034 <_printf_i+0x7a>
    80002002:	f9d5879b          	addiw	a5,a1,-99
    80002006:	0ff7f793          	andi	a5,a5,255
    8000200a:	4655                	c.li	a2,21
    8000200c:	fef666e3          	bltu	a2,a5,80001ff8 <_printf_i+0x3e>
    80002010:	00001617          	auipc	a2,0x1
    80002014:	a7060613          	addi	a2,a2,-1424 # 80002a80 <__sf_fake_stdout+0x80>
    80002018:	078a                	c.slli	a5,0x2
    8000201a:	97b2                	c.add	a5,a2
    8000201c:	439c                	c.lw	a5,0(a5)
    8000201e:	97b2                	c.add	a5,a2
    80002020:	8782                	c.jr	a5
    80002022:	631c                	c.ld	a5,0(a4)
    80002024:	04240493          	addi	s1,s0,66
    80002028:	00878693          	addi	a3,a5,8
    8000202c:	439c                	c.lw	a5,0(a5)
    8000202e:	e314                	c.sd	a3,0(a4)
    80002030:	04f40123          	sb	a5,66(s0)
    80002034:	4785                	c.li	a5,1
    80002036:	aa7d                	c.j	800021f4 <_printf_i+0x23a>
    80002038:	4010                	c.lw	a2,0(s0)
    8000203a:	631c                	c.ld	a5,0(a4)
    8000203c:	08067513          	andi	a0,a2,128
    80002040:	00878593          	addi	a1,a5,8
    80002044:	c10d                	c.beqz	a0,80002066 <_printf_i+0xac>
    80002046:	639c                	c.ld	a5,0(a5)
    80002048:	e30c                	c.sd	a1,0(a4)
    8000204a:	0007d863          	bge	a5,zero,8000205a <_printf_i+0xa0>
    8000204e:	02d00713          	addi	a4,zero,45
    80002052:	40f007b3          	sub	a5,zero,a5
    80002056:	04e401a3          	sb	a4,67(s0)
    8000205a:	00001617          	auipc	a2,0x1
    8000205e:	9f660613          	addi	a2,a2,-1546 # 80002a50 <__sf_fake_stdout+0x50>
    80002062:	4729                	c.li	a4,10
    80002064:	a83d                	c.j	800020a2 <_printf_i+0xe8>
    80002066:	04067613          	andi	a2,a2,64
    8000206a:	e30c                	c.sd	a1,0(a4)
    8000206c:	c601                	c.beqz	a2,80002074 <_printf_i+0xba>
    8000206e:	00079783          	lh	a5,0(a5)
    80002072:	bfe1                	c.j	8000204a <_printf_i+0x90>
    80002074:	439c                	c.lw	a5,0(a5)
    80002076:	bfd1                	c.j	8000204a <_printf_i+0x90>
    80002078:	4010                	c.lw	a2,0(s0)
    8000207a:	631c                	c.ld	a5,0(a4)
    8000207c:	08067813          	andi	a6,a2,128
    80002080:	00878513          	addi	a0,a5,8
    80002084:	08080d63          	beq	a6,zero,8000211e <_printf_i+0x164>
    80002088:	639c                	c.ld	a5,0(a5)
    8000208a:	e308                	c.sd	a0,0(a4)
    8000208c:	06f00713          	addi	a4,zero,111
    80002090:	00001617          	auipc	a2,0x1
    80002094:	9c060613          	addi	a2,a2,-1600 # 80002a50 <__sf_fake_stdout+0x50>
    80002098:	10e58463          	beq	a1,a4,800021a0 <_printf_i+0x1e6>
    8000209c:	4729                	c.li	a4,10
    8000209e:	040401a3          	sb	zero,67(s0)
    800020a2:	404c                	c.lw	a1,4(s0)
    800020a4:	c40c                	c.sw	a1,8(s0)
    800020a6:	0005c563          	blt	a1,zero,800020b0 <_printf_i+0xf6>
    800020aa:	4008                	c.lw	a0,0(s0)
    800020ac:	996d                	c.andi	a0,-5
    800020ae:	c008                	c.sw	a0,0(s0)
    800020b0:	e399                	c.bnez	a5,800020b6 <_printf_i+0xfc>
    800020b2:	84b6                	c.mv	s1,a3
    800020b4:	cd99                	c.beqz	a1,800020d2 <_printf_i+0x118>
    800020b6:	84b6                	c.mv	s1,a3
    800020b8:	02e7f5b3          	remu	a1,a5,a4
    800020bc:	14fd                	c.addi	s1,-1
    800020be:	95b2                	c.add	a1,a2
    800020c0:	0005c583          	lbu	a1,0(a1)
    800020c4:	00b48023          	sb	a1,0(s1)
    800020c8:	85be                	c.mv	a1,a5
    800020ca:	02e7d7b3          	divu	a5,a5,a4
    800020ce:	fee5f5e3          	bgeu	a1,a4,800020b8 <_printf_i+0xfe>
    800020d2:	47a1                	c.li	a5,8
    800020d4:	00f71e63          	bne	a4,a5,800020f0 <_printf_i+0x136>
    800020d8:	401c                	c.lw	a5,0(s0)
    800020da:	8b85                	c.andi	a5,1
    800020dc:	cb91                	c.beqz	a5,800020f0 <_printf_i+0x136>
    800020de:	4058                	c.lw	a4,4(s0)
    800020e0:	481c                	c.lw	a5,16(s0)
    800020e2:	00e7c763          	blt	a5,a4,800020f0 <_printf_i+0x136>
    800020e6:	03000793          	addi	a5,zero,48
    800020ea:	fef48fa3          	sb	a5,-1(s1)
    800020ee:	14fd                	c.addi	s1,-1
    800020f0:	8e85                	c.sub	a3,s1
    800020f2:	c814                	c.sw	a3,16(s0)
    800020f4:	8752                	c.mv	a4,s4
    800020f6:	86ce                	c.mv	a3,s3
    800020f8:	0070                	c.addi4spn	a2,sp,12
    800020fa:	85a2                	c.mv	a1,s0
    800020fc:	854a                	c.mv	a0,s2
    800020fe:	d97ff0ef          	jal	ra,80001e94 <_printf_common>
    80002102:	5afd                	c.li	s5,-1
    80002104:	0f551c63          	bne	a0,s5,800021fc <_printf_i+0x242>
    80002108:	557d                	c.li	a0,-1
    8000210a:	60a6                	c.ldsp	ra,72(sp)
    8000210c:	6406                	c.ldsp	s0,64(sp)
    8000210e:	74e2                	c.ldsp	s1,56(sp)
    80002110:	7942                	c.ldsp	s2,48(sp)
    80002112:	79a2                	c.ldsp	s3,40(sp)
    80002114:	7a02                	c.ldsp	s4,32(sp)
    80002116:	6ae2                	c.ldsp	s5,24(sp)
    80002118:	6b42                	c.ldsp	s6,16(sp)
    8000211a:	6161                	c.addi16sp	sp,80
    8000211c:	8082                	c.jr	ra
    8000211e:	439c                	c.lw	a5,0(a5)
    80002120:	04067613          	andi	a2,a2,64
    80002124:	e308                	c.sd	a0,0(a4)
    80002126:	c601                	c.beqz	a2,8000212e <_printf_i+0x174>
    80002128:	17c2                	c.slli	a5,0x30
    8000212a:	93c1                	c.srli	a5,0x30
    8000212c:	b785                	c.j	8000208c <_printf_i+0xd2>
    8000212e:	1782                	c.slli	a5,0x20
    80002130:	9381                	c.srli	a5,0x20
    80002132:	bfa9                	c.j	8000208c <_printf_i+0xd2>
    80002134:	04b402a3          	sb	a1,69(s0)
    80002138:	00001617          	auipc	a2,0x1
    8000213c:	91860613          	addi	a2,a2,-1768 # 80002a50 <__sf_fake_stdout+0x50>
    80002140:	400c                	c.lw	a1,0(s0)
    80002142:	631c                	c.ld	a5,0(a4)
    80002144:	0805f813          	andi	a6,a1,128
    80002148:	00878513          	addi	a0,a5,8
    8000214c:	02080e63          	beq	a6,zero,80002188 <_printf_i+0x1ce>
    80002150:	639c                	c.ld	a5,0(a5)
    80002152:	e308                	c.sd	a0,0(a4)
    80002154:	0015f713          	andi	a4,a1,1
    80002158:	c701                	c.beqz	a4,80002160 <_printf_i+0x1a6>
    8000215a:	0205e593          	ori	a1,a1,32
    8000215e:	c00c                	c.sw	a1,0(s0)
    80002160:	4741                	c.li	a4,16
    80002162:	ff95                	c.bnez	a5,8000209e <_printf_i+0xe4>
    80002164:	400c                	c.lw	a1,0(s0)
    80002166:	fdf5f593          	andi	a1,a1,-33
    8000216a:	c00c                	c.sw	a1,0(s0)
    8000216c:	bf0d                	c.j	8000209e <_printf_i+0xe4>
    8000216e:	401c                	c.lw	a5,0(s0)
    80002170:	0a07e793          	ori	a5,a5,160
    80002174:	c01c                	c.sw	a5,0(s0)
    80002176:	07800793          	addi	a5,zero,120
    8000217a:	04f402a3          	sb	a5,69(s0)
    8000217e:	00001617          	auipc	a2,0x1
    80002182:	8ea60613          	addi	a2,a2,-1814 # 80002a68 <__sf_fake_stdout+0x68>
    80002186:	bf6d                	c.j	80002140 <_printf_i+0x186>
    80002188:	439c                	c.lw	a5,0(a5)
    8000218a:	0405f813          	andi	a6,a1,64
    8000218e:	e308                	c.sd	a0,0(a4)
    80002190:	00080563          	beq	a6,zero,8000219a <_printf_i+0x1e0>
    80002194:	17c2                	c.slli	a5,0x30
    80002196:	93c1                	c.srli	a5,0x30
    80002198:	bf75                	c.j	80002154 <_printf_i+0x19a>
    8000219a:	1782                	c.slli	a5,0x20
    8000219c:	9381                	c.srli	a5,0x20
    8000219e:	bf5d                	c.j	80002154 <_printf_i+0x19a>
    800021a0:	4721                	c.li	a4,8
    800021a2:	bdf5                	c.j	8000209e <_printf_i+0xe4>
    800021a4:	4010                	c.lw	a2,0(s0)
    800021a6:	631c                	c.ld	a5,0(a4)
    800021a8:	484c                	c.lw	a1,20(s0)
    800021aa:	08067813          	andi	a6,a2,128
    800021ae:	00878513          	addi	a0,a5,8
    800021b2:	00080963          	beq	a6,zero,800021c4 <_printf_i+0x20a>
    800021b6:	e308                	c.sd	a0,0(a4)
    800021b8:	639c                	c.ld	a5,0(a5)
    800021ba:	e38c                	c.sd	a1,0(a5)
    800021bc:	00042823          	sw	zero,16(s0)
    800021c0:	84b6                	c.mv	s1,a3
    800021c2:	bf0d                	c.j	800020f4 <_printf_i+0x13a>
    800021c4:	e308                	c.sd	a0,0(a4)
    800021c6:	04067613          	andi	a2,a2,64
    800021ca:	639c                	c.ld	a5,0(a5)
    800021cc:	c601                	c.beqz	a2,800021d4 <_printf_i+0x21a>
    800021ce:	00b79023          	sh	a1,0(a5)
    800021d2:	b7ed                	c.j	800021bc <_printf_i+0x202>
    800021d4:	c38c                	c.sw	a1,0(a5)
    800021d6:	b7dd                	c.j	800021bc <_printf_i+0x202>
    800021d8:	631c                	c.ld	a5,0(a4)
    800021da:	4050                	c.lw	a2,4(s0)
    800021dc:	4581                	c.li	a1,0
    800021de:	00878693          	addi	a3,a5,8
    800021e2:	e314                	c.sd	a3,0(a4)
    800021e4:	6384                	c.ld	s1,0(a5)
    800021e6:	8526                	c.mv	a0,s1
    800021e8:	bf1ff0ef          	jal	ra,80001dd8 <memchr>
    800021ec:	c119                	c.beqz	a0,800021f2 <_printf_i+0x238>
    800021ee:	8d05                	c.sub	a0,s1
    800021f0:	c048                	c.sw	a0,4(s0)
    800021f2:	405c                	c.lw	a5,4(s0)
    800021f4:	c81c                	c.sw	a5,16(s0)
    800021f6:	040401a3          	sb	zero,67(s0)
    800021fa:	bded                	c.j	800020f4 <_printf_i+0x13a>
    800021fc:	4814                	c.lw	a3,16(s0)
    800021fe:	8626                	c.mv	a2,s1
    80002200:	85ce                	c.mv	a1,s3
    80002202:	854a                	c.mv	a0,s2
    80002204:	9a02                	c.jalr	s4
    80002206:	f15501e3          	beq	a0,s5,80002108 <_printf_i+0x14e>
    8000220a:	401c                	c.lw	a5,0(s0)
    8000220c:	8b89                	c.andi	a5,2
    8000220e:	eb95                	c.bnez	a5,80002242 <_printf_i+0x288>
    80002210:	47b2                	c.lwsp	a5,12(sp)
    80002212:	4448                	c.lw	a0,12(s0)
    80002214:	0007871b          	addiw	a4,a5,0
    80002218:	0005069b          	addiw	a3,a0,0
    8000221c:	00e6d363          	bge	a3,a4,80002222 <_printf_i+0x268>
    80002220:	853e                	c.mv	a0,a5
    80002222:	2501                	c.addiw	a0,0
    80002224:	b5dd                	c.j	8000210a <_printf_i+0x150>
    80002226:	4685                	c.li	a3,1
    80002228:	8656                	c.mv	a2,s5
    8000222a:	85ce                	c.mv	a1,s3
    8000222c:	854a                	c.mv	a0,s2
    8000222e:	9a02                	c.jalr	s4
    80002230:	ed650ce3          	beq	a0,s6,80002108 <_printf_i+0x14e>
    80002234:	2485                	c.addiw	s1,1
    80002236:	445c                	c.lw	a5,12(s0)
    80002238:	4732                	c.lwsp	a4,12(sp)
    8000223a:	9f99                	c.subw	a5,a4
    8000223c:	fef4c5e3          	blt	s1,a5,80002226 <_printf_i+0x26c>
    80002240:	bfc1                	c.j	80002210 <_printf_i+0x256>
    80002242:	4481                	c.li	s1,0
    80002244:	01940a93          	addi	s5,s0,25
    80002248:	5b7d                	c.li	s6,-1
    8000224a:	b7f5                	c.j	80002236 <_printf_i+0x27c>

000000008000224c <_read_r>:
    8000224c:	1141                	c.addi	sp,-16
    8000224e:	e022                	c.sdsp	s0,0(sp)
    80002250:	842a                	c.mv	s0,a0
    80002252:	852e                	c.mv	a0,a1
    80002254:	85b2                	c.mv	a1,a2
    80002256:	8636                	c.mv	a2,a3
    80002258:	9601a823          	sw	zero,-1680(gp) # 80002d70 <errno>
    8000225c:	e406                	c.sdsp	ra,8(sp)
    8000225e:	0a0000ef          	jal	ra,800022fe <_read>
    80002262:	57fd                	c.li	a5,-1
    80002264:	00f51663          	bne	a0,a5,80002270 <_read_r+0x24>
    80002268:	9701a783          	lw	a5,-1680(gp) # 80002d70 <errno>
    8000226c:	c391                	c.beqz	a5,80002270 <_read_r+0x24>
    8000226e:	c01c                	c.sw	a5,0(s0)
    80002270:	60a2                	c.ldsp	ra,8(sp)
    80002272:	6402                	c.ldsp	s0,0(sp)
    80002274:	0141                	c.addi	sp,16
    80002276:	8082                	c.jr	ra

0000000080002278 <_malloc_usable_size_r>:
    80002278:	ff85b703          	ld	a4,-8(a1)
    8000227c:	02071693          	slli	a3,a4,0x20
    80002280:	0007079b          	addiw	a5,a4,0
    80002284:	ff870513          	addi	a0,a4,-8 # ffffffff7ffffff8 <__heap_end+0xfffffffefffdcff8>
    80002288:	0006d763          	bge	a3,zero,80002296 <_malloc_usable_size_r+0x1e>
    8000228c:	95aa                	c.add	a1,a0
    8000228e:	618c                	c.ld	a1,0(a1)
    80002290:	ff878513          	addi	a0,a5,-8
    80002294:	952e                	c.add	a0,a1
    80002296:	8082                	c.jr	ra

0000000080002298 <_close>:
    80002298:	1141                	c.addi	sp,-16
    8000229a:	e406                	c.sdsp	ra,8(sp)
    8000229c:	146000ef          	jal	ra,800023e2 <__errno>
    800022a0:	60a2                	c.ldsp	ra,8(sp)
    800022a2:	47a5                	c.li	a5,9
    800022a4:	c11c                	c.sw	a5,0(a0)
    800022a6:	557d                	c.li	a0,-1
    800022a8:	0141                	c.addi	sp,16
    800022aa:	8082                	c.jr	ra

00000000800022ac <_exit>:
    800022ac:	0015179b          	slliw	a5,a0,0x1
    800022b0:	0017e793          	ori	a5,a5,1
    800022b4:	2781                	c.addiw	a5,0
    800022b6:	07c2                	c.slli	a5,0x10
    800022b8:	83c1                	c.srli	a5,0x10
    800022ba:	00001717          	auipc	a4,0x1
    800022be:	88670713          	addi	a4,a4,-1914 # 80002b40 <tohost>
    800022c2:	00001697          	auipc	a3,0x1
    800022c6:	8806b323          	sd	zero,-1914(a3) # 80002b48 <fromhost>
    800022ca:	e31c                	c.sd	a5,0(a4)
    800022cc:	bfdd                	c.j	800022c2 <_exit+0x16>

00000000800022ce <_fstat>:
    800022ce:	1141                	c.addi	sp,-16
    800022d0:	e406                	c.sdsp	ra,8(sp)
    800022d2:	110000ef          	jal	ra,800023e2 <__errno>
    800022d6:	60a2                	c.ldsp	ra,8(sp)
    800022d8:	47a5                	c.li	a5,9
    800022da:	c11c                	c.sw	a5,0(a0)
    800022dc:	557d                	c.li	a0,-1
    800022de:	0141                	c.addi	sp,16
    800022e0:	8082                	c.jr	ra

00000000800022e2 <_isatty>:
    800022e2:	357d                	c.addiw	a0,-1
    800022e4:	00253513          	sltiu	a0,a0,2
    800022e8:	8082                	c.jr	ra

00000000800022ea <_lseek>:
    800022ea:	1141                	c.addi	sp,-16
    800022ec:	e406                	c.sdsp	ra,8(sp)
    800022ee:	0f4000ef          	jal	ra,800023e2 <__errno>
    800022f2:	60a2                	c.ldsp	ra,8(sp)
    800022f4:	47a5                	c.li	a5,9
    800022f6:	c11c                	c.sw	a5,0(a0)
    800022f8:	557d                	c.li	a0,-1
    800022fa:	0141                	c.addi	sp,16
    800022fc:	8082                	c.jr	ra

00000000800022fe <_read>:
    800022fe:	1141                	c.addi	sp,-16
    80002300:	e406                	c.sdsp	ra,8(sp)
    80002302:	0e0000ef          	jal	ra,800023e2 <__errno>
    80002306:	60a2                	c.ldsp	ra,8(sp)
    80002308:	05800793          	addi	a5,zero,88
    8000230c:	c11c                	c.sw	a5,0(a0)
    8000230e:	557d                	c.li	a0,-1
    80002310:	0141                	c.addi	sp,16
    80002312:	8082                	c.jr	ra

0000000080002314 <_sbrk>:
    80002314:	00001717          	auipc	a4,0x1
    80002318:	8f470713          	addi	a4,a4,-1804 # 80002c08 <curbrk>
    8000231c:	631c                	c.ld	a5,0(a4)
    8000231e:	97818693          	addi	a3,gp,-1672 # 80002d78 <_end>
    80002322:	953e                	c.add	a0,a5
    80002324:	00d56b63          	bltu	a0,a3,8000233a <_sbrk+0x26>
    80002328:	00021697          	auipc	a3,0x21
    8000232c:	cd868693          	addi	a3,a3,-808 # 80023000 <__heap_end>
    80002330:	00d57563          	bgeu	a0,a3,8000233a <_sbrk+0x26>
    80002334:	e308                	c.sd	a0,0(a4)
    80002336:	853e                	c.mv	a0,a5
    80002338:	8082                	c.jr	ra
    8000233a:	1141                	c.addi	sp,-16
    8000233c:	e406                	c.sdsp	ra,8(sp)
    8000233e:	0a4000ef          	jal	ra,800023e2 <__errno>
    80002342:	60a2                	c.ldsp	ra,8(sp)
    80002344:	47b1                	c.li	a5,12
    80002346:	c11c                	c.sw	a5,0(a0)
    80002348:	57fd                	c.li	a5,-1
    8000234a:	853e                	c.mv	a0,a5
    8000234c:	0141                	c.addi	sp,16
    8000234e:	8082                	c.jr	ra

0000000080002350 <_write>:
    80002350:	04000693          	addi	a3,zero,64
    80002354:	a825                	c.j	8000238c <htif_syscall>

0000000080002356 <__init_tls>:
    80002356:	1141                	c.addi	sp,-16
    80002358:	00000613          	addi	a2,zero,0
    8000235c:	00000597          	auipc	a1,0x0
    80002360:	29e58593          	addi	a1,a1,670 # 800025fa <__tbss_end>
    80002364:	8512                	c.mv	a0,tp
    80002366:	e022                	c.sdsp	s0,0(sp)
    80002368:	e406                	c.sdsp	ra,8(sp)
    8000236a:	8412                	c.mv	s0,tp
    8000236c:	a87ff0ef          	jal	ra,80001df2 <memcpy>
    80002370:	00000513          	addi	a0,zero,0
    80002374:	9522                	c.add	a0,s0
    80002376:	6402                	c.ldsp	s0,0(sp)
    80002378:	60a2                	c.ldsp	ra,8(sp)
    8000237a:	00000613          	addi	a2,zero,0
    8000237e:	4581                	c.li	a1,0
    80002380:	0141                	c.addi	sp,16
    80002382:	962ff06f          	jal	zero,800014e4 <memset>

0000000080002386 <__main>:
    80002386:	10500073          	wfi
    8000238a:	bff5                	c.j	80002386 <__main>

000000008000238c <htif_syscall>:
    8000238c:	7139                	c.addi16sp	sp,-64
    8000238e:	e036                	c.sdsp	a3,0(sp)
    80002390:	e42a                	c.sdsp	a0,8(sp)
    80002392:	e82e                	c.sdsp	a1,16(sp)
    80002394:	57fd                	c.li	a5,-1
    80002396:	ec32                	c.sdsp	a2,24(sp)
    80002398:	83c1                	c.srli	a5,0x10
    8000239a:	860a                	c.mv	a2,sp
    8000239c:	8e7d                	c.and	a2,a5
    8000239e:	83018713          	addi	a4,gp,-2000 # 80002c30 <htif_lock>
    800023a2:	56fd                	c.li	a3,-1
    800023a4:	431c                	c.lw	a5,0(a4)
    800023a6:	2781                	c.addiw	a5,0
    800023a8:	fff5                	c.bnez	a5,800023a4 <htif_syscall+0x18>
    800023aa:	0cd727af          	amoswap.w.aq	a5,a3,(a4)
    800023ae:	fbfd                	c.bnez	a5,800023a4 <htif_syscall+0x18>
    800023b0:	0110000f          	fence	w,w
    800023b4:	00000697          	auipc	a3,0x0
    800023b8:	78c68693          	addi	a3,a3,1932 # 80002b40 <tohost>
    800023bc:	e290                	c.sd	a2,0(a3)
    800023be:	669c                	c.ld	a5,8(a3)
    800023c0:	dffd                	c.beqz	a5,800023be <htif_syscall+0x32>
    800023c2:	00000797          	auipc	a5,0x0
    800023c6:	7807b323          	sd	zero,1926(a5) # 80002b48 <fromhost>
    800023ca:	0a07202f          	amoswap.w.rl	zero,zero,(a4)
    800023ce:	0220000f          	fence	r,r
    800023d2:	6502                	c.ldsp	a0,0(sp)
    800023d4:	6121                	c.addi16sp	sp,64
    800023d6:	8082                	c.jr	ra

00000000800023d8 <atexit>:
    800023d8:	85aa                	c.mv	a1,a0
    800023da:	4681                	c.li	a3,0
    800023dc:	4601                	c.li	a2,0
    800023de:	4501                	c.li	a0,0
    800023e0:	a8e9                	c.j	800024ba <__register_exitproc>

00000000800023e2 <__errno>:
    800023e2:	00001517          	auipc	a0,0x1
    800023e6:	81e53503          	ld	a0,-2018(a0) # 80002c00 <_impure_ptr>
    800023ea:	8082                	c.jr	ra

00000000800023ec <exit>:
    800023ec:	1141                	c.addi	sp,-16
    800023ee:	e022                	c.sdsp	s0,0(sp)
    800023f0:	e406                	c.sdsp	ra,8(sp)
    800023f2:	00000797          	auipc	a5,0x0
    800023f6:	14278793          	addi	a5,a5,322 # 80002534 <__call_exitprocs>
    800023fa:	842a                	c.mv	s0,a0
    800023fc:	c781                	c.beqz	a5,80002404 <exit+0x18>
    800023fe:	4581                	c.li	a1,0
    80002400:	134000ef          	jal	ra,80002534 <__call_exitprocs>
    80002404:	00000517          	auipc	a0,0x0
    80002408:	6f453503          	ld	a0,1780(a0) # 80002af8 <_global_impure_ptr>
    8000240c:	653c                	c.ld	a5,72(a0)
    8000240e:	c391                	c.beqz	a5,80002412 <exit+0x26>
    80002410:	9782                	c.jalr	a5
    80002412:	8522                	c.mv	a0,s0
    80002414:	e99ff0ef          	jal	ra,800022ac <_exit>

0000000080002418 <__libc_fini_array>:
    80002418:	1101                	c.addi	sp,-32
    8000241a:	00000797          	auipc	a5,0x0
    8000241e:	70e78793          	addi	a5,a5,1806 # 80002b28 <__fini_array_end>
    80002422:	e822                	c.sdsp	s0,16(sp)
    80002424:	00000417          	auipc	s0,0x0
    80002428:	70440413          	addi	s0,s0,1796 # 80002b28 <__fini_array_end>
    8000242c:	8c1d                	c.sub	s0,a5
    8000242e:	e426                	c.sdsp	s1,8(sp)
    80002430:	ec06                	c.sdsp	ra,24(sp)
    80002432:	840d                	c.srai	s0,0x3
    80002434:	84be                	c.mv	s1,a5
    80002436:	e411                	c.bnez	s0,80002442 <__libc_fini_array+0x2a>
    80002438:	60e2                	c.ldsp	ra,24(sp)
    8000243a:	6442                	c.ldsp	s0,16(sp)
    8000243c:	64a2                	c.ldsp	s1,8(sp)
    8000243e:	6105                	c.addi16sp	sp,32
    80002440:	8082                	c.jr	ra
    80002442:	147d                	c.addi	s0,-1
    80002444:	00341793          	slli	a5,s0,0x3
    80002448:	97a6                	c.add	a5,s1
    8000244a:	639c                	c.ld	a5,0(a5)
    8000244c:	9782                	c.jalr	a5
    8000244e:	b7e5                	c.j	80002436 <__libc_fini_array+0x1e>

0000000080002450 <__libc_init_array>:
    80002450:	1101                	c.addi	sp,-32
    80002452:	00000797          	auipc	a5,0x0
    80002456:	6d678793          	addi	a5,a5,1750 # 80002b28 <__fini_array_end>
    8000245a:	e822                	c.sdsp	s0,16(sp)
    8000245c:	00000417          	auipc	s0,0x0
    80002460:	6cc40413          	addi	s0,s0,1740 # 80002b28 <__fini_array_end>
    80002464:	8c1d                	c.sub	s0,a5
    80002466:	e426                	c.sdsp	s1,8(sp)
    80002468:	e04a                	c.sdsp	s2,0(sp)
    8000246a:	ec06                	c.sdsp	ra,24(sp)
    8000246c:	840d                	c.srai	s0,0x3
    8000246e:	4481                	c.li	s1,0
    80002470:	893e                	c.mv	s2,a5
    80002472:	02849663          	bne	s1,s0,8000249e <__libc_init_array+0x4e>
    80002476:	00000797          	auipc	a5,0x0
    8000247a:	6b278793          	addi	a5,a5,1714 # 80002b28 <__fini_array_end>
    8000247e:	00000417          	auipc	s0,0x0
    80002482:	6aa40413          	addi	s0,s0,1706 # 80002b28 <__fini_array_end>
    80002486:	8c1d                	c.sub	s0,a5
    80002488:	840d                	c.srai	s0,0x3
    8000248a:	4481                	c.li	s1,0
    8000248c:	893e                	c.mv	s2,a5
    8000248e:	00849f63          	bne	s1,s0,800024ac <__libc_init_array+0x5c>
    80002492:	60e2                	c.ldsp	ra,24(sp)
    80002494:	6442                	c.ldsp	s0,16(sp)
    80002496:	64a2                	c.ldsp	s1,8(sp)
    80002498:	6902                	c.ldsp	s2,0(sp)
    8000249a:	6105                	c.addi16sp	sp,32
    8000249c:	8082                	c.jr	ra
    8000249e:	00349793          	slli	a5,s1,0x3
    800024a2:	97ca                	c.add	a5,s2
    800024a4:	639c                	c.ld	a5,0(a5)
    800024a6:	0485                	c.addi	s1,1
    800024a8:	9782                	c.jalr	a5
    800024aa:	b7e1                	c.j	80002472 <__libc_init_array+0x22>
    800024ac:	00349793          	slli	a5,s1,0x3
    800024b0:	97ca                	c.add	a5,s2
    800024b2:	639c                	c.ld	a5,0(a5)
    800024b4:	0485                	c.addi	s1,1
    800024b6:	9782                	c.jalr	a5
    800024b8:	bfd9                	c.j	8000248e <__libc_init_array+0x3e>

00000000800024ba <__register_exitproc>:
    800024ba:	88aa                	c.mv	a7,a0
    800024bc:	84018513          	addi	a0,gp,-1984 # 80002c40 <_global_atexit>
    800024c0:	611c                	c.ld	a5,0(a0)
    800024c2:	ef91                	c.bnez	a5,800024de <__register_exitproc+0x24>
    800024c4:	85018713          	addi	a4,gp,-1968 # 80002c50 <_global_atexit0>
    800024c8:	e118                	c.sd	a4,0(a0)
    800024ca:	00000537          	lui	a0,0x0
    800024ce:	00050513          	addi	a0,a0,0 # 0 <__boot_hart>
    800024d2:	87ba                	c.mv	a5,a4
    800024d4:	c509                	c.beqz	a0,800024de <__register_exitproc+0x24>
    800024d6:	611c                	c.ld	a5,0(a0)
    800024d8:	10f73823          	sd	a5,272(a4)
    800024dc:	87ba                	c.mv	a5,a4
    800024de:	4798                	c.lw	a4,8(a5)
    800024e0:	487d                	c.li	a6,31
    800024e2:	557d                	c.li	a0,-1
    800024e4:	04e84763          	blt	a6,a4,80002532 <__register_exitproc+0x78>
    800024e8:	02088d63          	beq	a7,zero,80002522 <__register_exitproc+0x68>
    800024ec:	1107b803          	ld	a6,272(a5)
    800024f0:	04080163          	beq	a6,zero,80002532 <__register_exitproc+0x78>
    800024f4:	00371513          	slli	a0,a4,0x3
    800024f8:	9542                	c.add	a0,a6
    800024fa:	e110                	c.sd	a2,0(a0)
    800024fc:	20082303          	lw	t1,512(a6)
    80002500:	4605                	c.li	a2,1
    80002502:	00e6163b          	sllw	a2,a2,a4
    80002506:	00c36333          	or	t1,t1,a2
    8000250a:	20682023          	sw	t1,512(a6)
    8000250e:	10d53023          	sd	a3,256(a0)
    80002512:	4689                	c.li	a3,2
    80002514:	00d89763          	bne	a7,a3,80002522 <__register_exitproc+0x68>
    80002518:	20482683          	lw	a3,516(a6)
    8000251c:	8e55                	c.or	a2,a3
    8000251e:	20c82223          	sw	a2,516(a6)
    80002522:	0017069b          	addiw	a3,a4,1
    80002526:	0709                	c.addi	a4,2
    80002528:	070e                	c.slli	a4,0x3
    8000252a:	c794                	c.sw	a3,8(a5)
    8000252c:	97ba                	c.add	a5,a4
    8000252e:	e38c                	c.sd	a1,0(a5)
    80002530:	4501                	c.li	a0,0
    80002532:	8082                	c.jr	ra

0000000080002534 <__call_exitprocs>:
    80002534:	715d                	c.addi16sp	sp,-80
    80002536:	f44e                	c.sdsp	s3,40(sp)
    80002538:	f052                	c.sdsp	s4,32(sp)
    8000253a:	ec56                	c.sdsp	s5,24(sp)
    8000253c:	e85a                	c.sdsp	s6,16(sp)
    8000253e:	e486                	c.sdsp	ra,72(sp)
    80002540:	e0a2                	c.sdsp	s0,64(sp)
    80002542:	fc26                	c.sdsp	s1,56(sp)
    80002544:	f84a                	c.sdsp	s2,48(sp)
    80002546:	e45e                	c.sdsp	s7,8(sp)
    80002548:	8a2a                	c.mv	s4,a0
    8000254a:	89ae                	c.mv	s3,a1
    8000254c:	84018a93          	addi	s5,gp,-1984 # 80002c40 <_global_atexit>
    80002550:	4b05                	c.li	s6,1
    80002552:	000ab403          	ld	s0,0(s5)
    80002556:	c819                	c.beqz	s0,8000256c <__call_exitprocs+0x38>
    80002558:	4404                	c.lw	s1,8(s0)
    8000255a:	11043903          	ld	s2,272(s0)
    8000255e:	34fd                	c.addiw	s1,-1
    80002560:	02049713          	slli	a4,s1,0x20
    80002564:	0004879b          	addiw	a5,s1,0
    80002568:	00075d63          	bge	a4,zero,80002582 <__call_exitprocs+0x4e>
    8000256c:	60a6                	c.ldsp	ra,72(sp)
    8000256e:	6406                	c.ldsp	s0,64(sp)
    80002570:	74e2                	c.ldsp	s1,56(sp)
    80002572:	7942                	c.ldsp	s2,48(sp)
    80002574:	79a2                	c.ldsp	s3,40(sp)
    80002576:	7a02                	c.ldsp	s4,32(sp)
    80002578:	6ae2                	c.ldsp	s5,24(sp)
    8000257a:	6b42                	c.ldsp	s6,16(sp)
    8000257c:	6ba2                	c.ldsp	s7,8(sp)
    8000257e:	6161                	c.addi16sp	sp,80
    80002580:	8082                	c.jr	ra
    80002582:	00098d63          	beq	s3,zero,8000259c <__call_exitprocs+0x68>
    80002586:	00091463          	bne	s2,zero,8000258e <__call_exitprocs+0x5a>
    8000258a:	14fd                	c.addi	s1,-1
    8000258c:	bfd1                	c.j	80002560 <__call_exitprocs+0x2c>
    8000258e:	00349713          	slli	a4,s1,0x3
    80002592:	974a                	c.add	a4,s2
    80002594:	10073703          	ld	a4,256(a4)
    80002598:	ff3719e3          	bne	a4,s3,8000258a <__call_exitprocs+0x56>
    8000259c:	4418                	c.lw	a4,8(s0)
    8000259e:	00349613          	slli	a2,s1,0x3
    800025a2:	00c405b3          	add	a1,s0,a2
    800025a6:	377d                	c.addiw	a4,-1
    800025a8:	6994                	c.ld	a3,16(a1)
    800025aa:	02f71863          	bne	a4,a5,800025da <__call_exitprocs+0xa6>
    800025ae:	c41c                	c.sw	a5,8(s0)
    800025b0:	dee9                	c.beqz	a3,8000258a <__call_exitprocs+0x56>
    800025b2:	00842b83          	lw	s7,8(s0)
    800025b6:	00090963          	beq	s2,zero,800025c8 <__call_exitprocs+0x94>
    800025ba:	20092703          	lw	a4,512(s2)
    800025be:	00fb17bb          	sllw	a5,s6,a5
    800025c2:	8f7d                	c.and	a4,a5
    800025c4:	2701                	c.addiw	a4,0
    800025c6:	ef09                	c.bnez	a4,800025e0 <__call_exitprocs+0xac>
    800025c8:	9682                	c.jalr	a3
    800025ca:	4418                	c.lw	a4,8(s0)
    800025cc:	000ab783          	ld	a5,0(s5)
    800025d0:	f97711e3          	bne	a4,s7,80002552 <__call_exitprocs+0x1e>
    800025d4:	faf40be3          	beq	s0,a5,8000258a <__call_exitprocs+0x56>
    800025d8:	bfad                	c.j	80002552 <__call_exitprocs+0x1e>
    800025da:	0005b823          	sd	zero,16(a1)
    800025de:	bfc9                	c.j	800025b0 <__call_exitprocs+0x7c>
    800025e0:	20492703          	lw	a4,516(s2)
    800025e4:	964a                	c.add	a2,s2
    800025e6:	620c                	c.ld	a1,0(a2)
    800025e8:	8ff9                	c.and	a5,a4
    800025ea:	2781                	c.addiw	a5,0
    800025ec:	e781                	c.bnez	a5,800025f4 <__call_exitprocs+0xc0>
    800025ee:	8552                	c.mv	a0,s4
    800025f0:	9682                	c.jalr	a3
    800025f2:	bfe1                	c.j	800025ca <__call_exitprocs+0x96>
    800025f4:	852e                	c.mv	a0,a1
    800025f6:	9682                	c.jalr	a3
    800025f8:	bfc9                	c.j	800025ca <__call_exitprocs+0x96>
